(dp1
S'venue_id'
p2
V4169
p3
sS'venue_name'
p4
VMarlins Park
p5
sS'umpire'
p6
(dp7
S'id'
p8
V427344
p9
sS'name'
p10
VBill Miller
p11
ssS'game_type'
p12
VR
sS'pitches'
p13
(lp14
(dp15
S'des'
p16
VCalled Strike
p17
sS'batter_height'
p18
V6-0
p19
sS'pz'
p20
F1.4994200176611401
sS'p_throws'
p21
VR
sS'px'
p22
F-0.20876310002535201
sS'handedness'
p23
VL
sS'pitcher_id'
p24
V450172
p25
sS'sz_top'
p26
F3.1415613037536119
sS'sz_bottom'
p27
F1.4444967721799955
sS'inning_count'
p28
V1
sS'pitch_count'
p29
I1
sS'atbat_count'
p30
I1
sS'isHome'
p31
I0
sS'batter_id'
p32
V571681
p33
sS'type'
p34
VS
sa(dp35
g16
VBall
p36
sg18
g19
sg20
F3.9022666742238399
sg21
VR
sg22
F-2.5857384876545702
sg23
VL
sg24
g25
sg26
F3.2569644109961438
sg27
F1.4763536420332635
sg28
V1
sg29
I2
sg30
I1
sg31
I0
sg32
g33
sg34
VB
sa(dp37
g16
VIn play, out(s)
p38
sg18
g19
sg20
F2.39480985990927
sg21
VR
sg22
F-0.32039970355966202
sg23
VL
sg24
g25
sg26
F3.224701634151657
sg27
F1.4425022621623533
sg28
V1
sg29
I3
sg30
I1
sg31
I0
sg32
g33
sg34
VX
sa(dp39
g16
VBall
p40
sg18
V6-1
p41
sg20
F1.44979704578226
sg21
VR
sg22
F-1.1982978926660199
sg23
VL
sg24
V450172
p42
sg26
F3.5951038088473624
sg27
F1.5566989920157646
sg28
V1
sg29
I1
sg30
I2
sg31
I0
sg32
V444482
p43
sg34
VB
sa(dp44
g16
VBall
p45
sg18
g41
sg20
F1.9904247100728401
sg21
VR
sg22
F-1.14703382609242
sg23
VL
sg24
g42
sg26
F3.5449739410510368
sg27
F1.5399832984007631
sg28
V1
sg29
I2
sg30
I2
sg31
I0
sg32
g43
sg34
VB
sa(dp46
g16
VCalled Strike
p47
sg18
g41
sg20
F1.81162808712153
sg21
VR
sg22
F0.645224654223991
sg23
VL
sg24
g42
sg26
F3.5199077985343123
sg27
F1.5141168120993846
sg28
V1
sg29
I3
sg30
I2
sg31
I0
sg32
g43
sg34
VS
sa(dp48
g16
VIn play, out(s)
p49
sg18
g41
sg20
F2.3139086570020302
sg21
VR
sg22
F-0.65143858819047396
sg23
VL
sg24
g42
sg26
F3.6034608282353311
sg27
F1.5901357800185139
sg28
V1
sg29
I4
sg30
I2
sg31
I0
sg32
g43
sg34
VX
sa(dp50
g16
VCalled Strike
p51
sg18
V6-3
p52
sg20
F2.5132809387078501
sg21
VR
sg22
F-0.256953480349143
sg23
VR
sg24
V450172
p53
sg26
F3.4158827163902892
sg27
F1.5907359291389831
sg28
V1
sg29
I1
sg30
I3
sg31
I0
sg32
V502671
p54
sg34
VS
sa(dp55
g16
VBall
p56
sg18
g52
sg20
F0.00643112610266631
sg21
VR
sg22
F0.75355204591375202
sg23
VR
sg24
g53
sg26
F3.4661816367340492
sg27
F1.6418675529157163
sg28
V1
sg29
I2
sg30
I3
sg31
I0
sg32
g54
sg34
VB
sa(dp57
g16
VFoul
p58
sg18
g52
sg20
F2.4335459650512798
sg21
VR
sg22
F0.36955206123871998
sg23
VR
sg24
g53
sg26
F3.5507850495246487
sg27
F1.6492473081477428
sg28
V1
sg29
I3
sg30
I3
sg31
I0
sg32
g54
sg34
VS
sa(dp59
g16
VFoul
p60
sg18
g52
sg20
F1.4283917483157
sg21
VR
sg22
F-0.49279509316727499
sg23
VR
sg24
g53
sg26
F3.6010800201085189
sg27
F1.6828702365671511
sg28
V1
sg29
I4
sg30
I3
sg31
I0
sg32
g54
sg34
VS
sa(dp61
g16
VBall
p62
sg18
g52
sg20
F-0.21730119622357699
sg21
VR
sg22
F1.77182978719074
sg23
VR
sg24
g53
sg26
F3.4158826131378
sg27
F1.5998846627264385
sg28
V1
sg29
I5
sg30
I3
sg31
I0
sg32
g54
sg34
VB
sa(dp63
g16
VCalled Strike
p64
sg18
g52
sg20
F2.5207264100791398
sg21
VR
sg22
F-1.1279530374180899
sg23
VR
sg24
g53
sg26
F3.4137420105809326
sg27
F1.5734350447342358
sg28
V1
sg29
I6
sg30
I3
sg31
I0
sg32
g54
sg34
VS
sa(dp65
g16
VBall
p66
sg18
V5-11
p67
sg20
F2.5415556428713399
sg21
VR
sg22
F-1.0325122840729499
sg23
VL
sg24
V517414
p68
sg26
F3.3283871860504313
sg27
F1.4722480406841285
sg28
V1
sg29
I1
sg30
I4
sg31
I1
sg32
V543829
p69
sg34
VB
sa(dp70
g16
VFoul
p71
sg18
g67
sg20
F1.30654247552345
sg21
VR
sg22
F-0.038945796993299003
sg23
VL
sg24
g68
sg26
F3.3118667690407868
sg27
F1.4314566750225737
sg28
V1
sg29
I2
sg30
I4
sg31
I1
sg32
g69
sg34
VS
sa(dp72
g16
VIn play, out(s)
p73
sg18
g67
sg20
F2.03833424295886
sg21
VR
sg22
F0.25330935457612203
sg23
VL
sg24
g68
sg26
F3.2115954677045231
sg27
F1.4230976028943907
sg28
V1
sg29
I3
sg30
I4
sg31
I1
sg32
g69
sg34
VX
sa(dp74
g16
VBall
p75
sg18
V6-6
p76
sg20
F0.85596050616212704
sg21
VR
sg22
F0.90213946209320195
sg23
VR
sg24
V517414
p77
sg26
F3.6292864639224938
sg27
F1.7325689618956801
sg28
V1
sg29
I1
sg30
I5
sg31
I1
sg32
V519317
p78
sg34
VB
sa(dp79
g16
VSwinging Strike
p80
sg18
g76
sg20
F0.66485410819865998
sg21
VR
sg22
F1.8120411054675001
sg23
VR
sg24
g77
sg26
F3.6209297238191915
sg27
F1.6656995915621025
sg28
V1
sg29
I2
sg30
I5
sg31
I1
sg32
g78
sg34
VS
sa(dp81
g16
VBall
p82
sg18
g76
sg20
F2.29884988766627
sg21
VR
sg22
F-1.18774243022657
sg23
VR
sg24
g77
sg26
F3.6543502278551188
sg27
F1.7409256295393369
sg28
V1
sg29
I3
sg30
I5
sg31
I1
sg32
g78
sg34
VB
sa(dp83
g16
VIn play, no out
p84
sg18
g76
sg20
F2.0721498666528402
sg21
VR
sg22
F0.15698874313897301
sg23
VR
sg24
g77
sg26
F3.6376399567266233
sg27
F1.7492839622049914
sg28
V1
sg29
I4
sg30
I5
sg31
I1
sg32
g78
sg34
VX
sa(dp85
g16
VSwinging Strike
p86
sg18
V6-3
p87
sg20
F1.45730803210728
sg21
VR
sg22
F-0.61111640910626197
sg23
VL
sg24
V517414
p88
sg26
F3.3635368795240943
sg27
F1.6063990957156484
sg28
V1
sg29
I1
sg30
I6
sg31
I1
sg32
V592885
p89
sg34
VS
sa(dp90
g16
VFoul Tip
p91
sg18
g87
sg20
F2.2182083372367001
sg21
VR
sg22
F1.0500787056963401
sg23
VL
sg24
g88
sg26
F3.3886039326594712
sg27
F1.6063990732454805
sg28
V1
sg29
I2
sg30
I6
sg31
I1
sg32
g89
sg34
VS
sa(dp92
g16
VIn play, out(s)
p93
sg18
g87
sg20
F1.4147832143694099
sg21
VR
sg22
F-0.323736605711817
sg23
VL
sg24
g88
sg26
F3.4053171110474842
sg27
F1.614759608394273
sg28
V1
sg29
I3
sg30
I6
sg31
I1
sg32
g89
sg34
VX
sa(dp94
g16
VCalled Strike
p95
sg18
V6-3
p96
sg20
F1.4225782683169299
sg21
VR
sg22
F-0.174452682446192
sg23
VL
sg24
V450172
p97
sg26
F3.2367563056068036
sg27
F1.5218040600139986
sg28
V2
sg29
I1
sg30
I7
sg31
I0
sg32
V571875
p98
sg34
VS
sa(dp99
g16
VBall
p100
sg18
g96
sg20
F1.11142255565155
sg21
VR
sg22
F-0.077387877882073006
sg23
VL
sg24
g97
sg26
F3.3140314286350652
sg27
F1.5071534763966454
sg28
V2
sg29
I2
sg30
I7
sg31
I0
sg32
g98
sg34
VB
sa(dp101
g16
VBall
p102
sg18
g96
sg20
F1.3410537011957899
sg21
VR
sg22
F0.36015691439855801
sg23
VL
sg24
g97
sg26
F3.4061143974454353
sg27
F1.6160109272971539
sg28
V2
sg29
I3
sg30
I7
sg31
I0
sg32
g98
sg34
VB
sa(dp103
g16
VIn play, out(s)
p104
sg18
g96
sg20
F2.5062834938128402
sg21
VR
sg22
F-0.788264436038701
sg23
VL
sg24
g97
sg26
F3.4661905111519786
sg27
F1.5992933912095744
sg28
V2
sg29
I4
sg30
I7
sg31
I0
sg32
g98
sg34
VX
sa(dp105
g16
VBall
p106
sg18
V6-0
p107
sg20
F0.30094356525645599
sg21
VR
sg22
F0.90379007267155997
sg23
VL
sg24
V450172
p108
sg26
F3.321389214688022
sg27
F1.604492058425862
sg28
V2
sg29
I1
sg30
I8
sg31
I0
sg32
V543302
p109
sg34
VB
sa(dp110
g16
VIn play, out(s)
p111
sg18
g107
sg20
F1.72080172120749
sg21
VR
sg22
F-0.047748867843584598
sg23
VL
sg24
g108
sg26
F3.3790856726054486
sg27
F1.5619084428005543
sg28
V2
sg29
I2
sg30
I8
sg31
I0
sg32
g109
sg34
VX
sa(dp112
g16
VCalled Strike
p113
sg18
V6-2
p114
sg20
F2.4264518965969102
sg21
VR
sg22
F-0.60365130573249604
sg23
VR
sg24
V450172
p115
sg26
F3.5174938631136179
sg27
F1.6275288164918322
sg28
V2
sg29
I1
sg30
I9
sg31
I0
sg32
V592273
p116
sg34
VS
sa(dp117
g16
VBall
p118
sg18
g114
sg20
F0.65239644227442395
sg21
VR
sg22
F0.077289028423554201
sg23
VR
sg24
g115
sg26
F3.5501208813698497
sg27
F1.6943968790289254
sg28
V2
sg29
I2
sg30
I9
sg31
I0
sg32
g116
sg34
VB
sa(dp119
g16
VIn play, out(s)
p120
sg18
g114
sg20
F2.0284496797561999
sg21
VR
sg22
F-0.25829221370024102
sg23
VR
sg24
g115
sg26
F3.6989253891808396
sg27
F1.7194719639879921
sg28
V2
sg29
I3
sg30
I9
sg31
I0
sg32
g116
sg34
VX
sa(dp121
g16
VBall
p122
sg18
V6-1
p123
sg20
F1.02276150937836
sg21
VR
sg22
F0.87557981186323697
sg23
VR
sg24
V517414
p124
sg26
F3.5529215112468435
sg27
F1.6972286094017051
sg28
V2
sg29
I1
sg30
I10
sg31
I1
sg32
V542303
p125
sg34
VB
sa(dp126
g16
VBall
p127
sg18
g123
sg20
F0.72579457611282605
sg21
VR
sg22
F0.696778694501337
sg23
VR
sg24
g124
sg26
F3.5947011606954611
sg27
F1.7306657238675278
sg28
V2
sg29
I2
sg30
I10
sg31
I1
sg32
g125
sg34
VB
sa(dp128
g16
VFoul
p129
sg18
g123
sg20
F2.2137773571188899
sg21
VR
sg22
F0.31776685114589298
sg23
VR
sg24
g124
sg26
F3.6523967569830731
sg27
F1.7139523446711493
sg28
V2
sg29
I3
sg30
I10
sg31
I1
sg32
g125
sg34
VS
sa(dp130
g16
VIn play, out(s)
p131
sg18
g123
sg20
F2.2163001947308199
sg21
VR
sg22
F-0.025065548461902998
sg23
VR
sg24
g124
sg26
F3.5354269873416051
sg27
F1.6805219497211432
sg28
V2
sg29
I4
sg30
I10
sg31
I1
sg32
g125
sg34
VX
sa(dp132
g16
VCalled Strike
p133
sg18
V6-3
p134
sg20
F3.0379283492288902
sg21
VR
sg22
F-0.092192391813069305
sg23
VL
sg24
V517414
p135
sg26
F3.5795865166674368
sg27
F1.6693364158187585
sg28
V2
sg29
I1
sg30
I11
sg31
I1
sg32
V571506
p136
sg34
VS
sa(dp137
g16
VSwinging Strike
p138
sg18
g134
sg20
F0.91736153816567201
sg21
VR
sg22
F0.81815618864186401
sg23
VL
sg24
g135
sg26
F3.4375461161137011
sg27
F1.58575190971494
sg28
V2
sg29
I2
sg30
I11
sg31
I1
sg32
g136
sg34
VS
sa(dp139
g16
VFoul
p140
sg18
g134
sg20
F3.6776821167748799
sg21
VR
sg22
F-0.42190276851898101
sg23
VL
sg24
g135
sg26
F3.571234089827847
sg27
F1.669339458944421
sg28
V2
sg29
I3
sg30
I11
sg31
I1
sg32
g136
sg34
VS
sa(dp141
g16
VBall
p142
sg18
g134
sg20
F-0.70074394795091
sg21
VR
sg22
F1.9292583354516499
sg23
VL
sg24
g135
sg26
F3.4459027718980977
sg27
F1.6776977467993319
sg28
V2
sg29
I4
sg30
I11
sg31
I1
sg32
g136
sg34
VB
sa(dp143
g16
VBall
p144
sg18
g134
sg20
F1.52879158395663
sg21
VR
sg22
F1.13597014869942
sg23
VL
sg24
g135
sg26
F3.4542579730217966
sg27
F1.6275462338875215
sg28
V2
sg29
I5
sg30
I11
sg31
I1
sg32
g136
sg34
VB
sa(dp145
g16
VBall
p146
sg18
g134
sg20
F2.8219302861089801
sg21
VR
sg22
F-1.7037079753398601
sg23
VL
sg24
g135
sg26
F3.5879436020946649
sg27
F1.7278479365102726
sg28
V2
sg29
I6
sg30
I11
sg31
I1
sg32
g136
sg34
VB
sa(dp147
g16
VFoul
p148
sg18
g134
sg20
F1.22954220541363
sg21
VR
sg22
F1.3011982468939201
sg23
VL
sg24
g135
sg26
F3.2871454138088012
sg27
F1.5523195790147284
sg28
V2
sg29
I7
sg30
I11
sg31
I1
sg32
g136
sg34
VS
sa(dp149
g16
VIn play, out(s)
p150
sg18
g134
sg20
F3.4269019196179502
sg21
VR
sg22
F-0.17372731242798001
sg23
VL
sg24
g135
sg26
F3.4876827327629343
sg27
F1.5941148446986766
sg28
V2
sg29
I8
sg30
I11
sg31
I1
sg32
g136
sg34
VX
sa(dp151
g16
VIn play, out(s)
p152
sg18
V6-1
p153
sg20
F2.2470466528080499
sg21
VR
sg22
F0.35594233630778299
sg23
VR
sg24
V517414
p154
sg26
F3.5338473828706078
sg27
F1.5384340594905304
sg28
V2
sg29
I1
sg30
I12
sg31
I1
sg32
V592663
p155
sg34
VX
sa(dp156
g16
VBall
p157
sg18
V6-2
p158
sg20
F3.49921866542853
sg21
VR
sg22
F-0.28773723953928099
sg23
VR
sg24
V450172
p159
sg26
F3.3643572079299418
sg27
F1.7270645960638298
sg28
V3
sg29
I1
sg30
I13
sg31
I0
sg32
V605113
p160
sg34
VB
sa(dp161
g16
VCalled Strike
p162
sg18
g158
sg20
F1.5284423059140699
sg21
VR
sg22
F0.534568386441581
sg23
VR
sg24
g159
sg26
F3.3627694518933176
sg27
F1.5256679103694566
sg28
V3
sg29
I2
sg30
I13
sg31
I0
sg32
g160
sg34
VS
sa(dp163
g16
VCalled Strike
p164
sg18
g158
sg20
F1.9893343473148899
sg21
VR
sg22
F0.80859915610830801
sg23
VR
sg24
g159
sg26
F3.3458909006610646
sg27
F1.5254767269989422
sg28
V3
sg29
I3
sg30
I13
sg31
I0
sg32
g160
sg34
VS
sa(dp165
g16
VCalled Strike
p166
sg18
g158
sg20
F1.94678763613364
sg21
VR
sg22
F0.72175689145722199
sg23
VR
sg24
g159
sg26
F3.3122995795730965
sg27
F1.5587217744848303
sg28
V3
sg29
I4
sg30
I13
sg31
I0
sg32
g160
sg34
VS
sa(dp167
g16
VIn play, out(s)
p168
sg18
V6-0
p169
sg20
F1.9736668862982201
sg21
VR
sg22
F-0.0100517786724232
sg23
VR
sg24
V450172
p170
sg26
F3.2725795384435266
sg27
F1.4987609127966053
sg28
V3
sg29
I1
sg30
I14
sg31
I0
sg32
V425772
p171
sg34
VX
sa(dp172
g16
VCalled Strike
p173
sg18
V6-4
p174
sg20
F2.7564033338586502
sg21
VR
sg22
F-0.51741342742304097
sg23
VR
sg24
V450172
p175
sg26
F3.5781431978869165
sg27
F1.6375194112948392
sg28
V3
sg29
I1
sg30
I15
sg31
I0
sg32
V517414
p176
sg34
VS
sa(dp177
g16
VSwinging Strike
p178
sg18
g174
sg20
F1.4951813789703201
sg21
VR
sg22
F-0.27932226735209997
sg23
VR
sg24
g175
sg26
F3.437091666154533
sg27
F1.6210750026100307
sg28
V3
sg29
I2
sg30
I15
sg31
I0
sg32
g176
sg34
VS
sa(dp179
g16
VSwinging Strike
p180
sg18
g174
sg20
F1.54983349178515
sg21
VR
sg22
F0.56992199585565495
sg23
VR
sg24
g175
sg26
F3.3956505944067068
sg27
F1.5462314057379665
sg28
V3
sg29
I3
sg30
I15
sg31
I0
sg32
g176
sg34
VS
sa(dp181
g16
VCalled Strike
p182
sg18
V6-0
p183
sg20
F2.1736134581104101
sg21
VR
sg22
F0.074683001686316697
sg23
VL
sg24
V517414
p184
sg26
F3.1680884307325137
sg27
F1.370738057434771
sg28
V3
sg29
I1
sg30
I16
sg31
I1
sg32
V518618
p185
sg34
VS
sa(dp186
g16
VBall
p187
sg18
g183
sg20
F2.6960869750235199
sg21
VR
sg22
F-1.3831503765228701
sg23
VL
sg24
g184
sg26
F3.2182275555395385
sg27
F1.3790992345367705
sg28
V3
sg29
I2
sg30
I16
sg31
I1
sg32
g185
sg34
VB
sa(dp188
g16
VBall
p189
sg18
g183
sg20
F3.58669802103827
sg21
VR
sg22
F1.1274034735924401
sg23
VL
sg24
g184
sg26
F3.1346667591373354
sg27
F1.3623823592413693
sg28
V3
sg29
I3
sg30
I16
sg31
I1
sg32
g185
sg34
VB
sa(dp190
g16
VCalled Strike
p191
sg18
g183
sg20
F1.79630880895631
sg21
VR
sg22
F-0.80271081355284701
sg23
VL
sg24
g184
sg26
F3.201541481906176
sg27
F1.3791267525569175
sg28
V3
sg29
I4
sg30
I16
sg31
I1
sg32
g185
sg34
VS
sa(dp192
g16
VSwinging Strike
p193
sg18
g183
sg20
F2.0232973419165901
sg21
VR
sg22
F0.0077358100897987198
sg23
VL
sg24
g184
sg26
F3.1511400688310474
sg27
F1.3370771193095727
sg28
V3
sg29
I5
sg30
I16
sg31
I1
sg32
g185
sg34
VS
sa(dp194
g16
VCalled Strike
p195
sg18
V6-1
p196
sg20
F1.6362135508795801
sg21
VR
sg22
F-0.88439476725911503
sg23
VL
sg24
V517414
p197
sg26
F3.3990644357824564
sg27
F1.5118007274183718
sg28
V3
sg29
I1
sg30
I17
sg31
I1
sg32
V595375
p198
sg34
VS
sa(dp199
g16
VBall
p200
sg18
g196
sg20
F1.04972271306047
sg21
VR
sg22
F-1.3074103243966
sg23
VL
sg24
g197
sg26
F3.4914058197895379
sg27
F1.6037536568650239
sg28
V3
sg29
I2
sg30
I17
sg31
I1
sg32
g198
sg34
VB
sa(dp201
g16
VBall
p202
sg18
g196
sg20
F3.3491799258689401
sg21
VR
sg22
F-0.34058965900736998
sg23
VL
sg24
g197
sg26
F3.1761596977571109
sg27
F1.5861912711644059
sg28
V3
sg29
I3
sg30
I17
sg31
I1
sg32
g198
sg34
VB
sa(dp203
g16
VSwinging Strike
p204
sg18
g196
sg20
F2.1335713749123499
sg21
VR
sg22
F-0.20364362896785801
sg23
VL
sg24
g197
sg26
F3.47486638569384
sg27
F1.662461696972116
sg28
V3
sg29
I4
sg30
I17
sg31
I1
sg32
g198
sg34
VS
sa(dp205
g16
VFoul Tip
p206
sg18
g196
sg20
F1.77427515647381
sg21
VR
sg22
F-0.49372944482273901
sg23
VL
sg24
g197
sg26
F3.4865713669910541
sg27
F1.6566696870109361
sg28
V3
sg29
I5
sg30
I17
sg31
I1
sg32
g198
sg34
VS
sa(dp207
g16
VBall
p208
sg18
V6-0
p209
sg20
F1.1928803802633099
sg21
VR
sg22
F0.73631530898039899
sg23
VR
sg24
V517414
p210
sg26
F3.4341655537082048
sg27
F1.6456507215214415
sg28
V3
sg29
I1
sg30
I18
sg31
I1
sg32
V450172
p211
sg34
VB
sa(dp212
g16
VSwinging Strike
p213
sg18
g209
sg20
F2.52302539679871
sg21
VR
sg22
F0.406706140247031
sg23
VR
sg24
g210
sg26
F3.4425247481754724
sg27
F1.5704266917540508
sg28
V3
sg29
I2
sg30
I18
sg31
I1
sg32
g211
sg34
VS
sa(dp214
g16
VBall
p215
sg18
g209
sg20
F0.80658794310077597
sg21
VR
sg22
F0.94732243726417797
sg23
VR
sg24
g210
sg26
F3.3673279242644334
sg27
F1.5620716282281748
sg28
V3
sg29
I3
sg30
I18
sg31
I1
sg32
g211
sg34
VB
sa(dp216
g16
VIn play, no out
p217
sg18
g209
sg20
F2.1772231320719202
sg21
VR
sg22
F0.0719481484593055
sg23
VR
sg24
g210
sg26
F3.4843094840992883
sg27
F1.5787927089109566
sg28
V3
sg29
I4
sg30
I18
sg31
I1
sg32
g211
sg34
VX
sa(dp218
g16
VFoul
p219
sg18
V5-11
p220
sg20
F1.6065614767159999
sg21
VR
sg22
F0.35534303046175503
sg23
VL
sg24
V517414
p221
sg26
F3.2949847067461668
sg27
F1.3142733858469917
sg28
V3
sg29
I1
sg30
I19
sg31
I1
sg32
V543829
p222
sg34
VS
sa(dp223
g16
VBall
p224
sg18
g220
sg20
F1.18311188945432
sg21
VR
sg22
F1.7953474176558299
sg23
VL
sg24
g221
sg26
F3.2448529876363317
sg27
F1.305128384790212
sg28
V3
sg29
I2
sg30
I19
sg31
I1
sg32
g222
sg34
VB
sa(dp225
g16
VBall
p226
sg18
g220
sg20
F3.7847602747951998
sg21
VR
sg22
F0.58706838097296299
sg23
VL
sg24
g221
sg26
F3.3451267555912985
sg27
F1.3469281991016508
sg28
V3
sg29
I3
sg30
I19
sg31
I1
sg32
g222
sg34
VB
sa(dp227
g16
VIn play, out(s)
p228
sg18
g220
sg20
F2.4347750927625902
sg21
VR
sg22
F-0.17352161071345801
sg23
VL
sg24
g221
sg26
F3.2949956759894086
sg27
F1.3142843572304486
sg28
V3
sg29
I4
sg30
I19
sg31
I1
sg32
g222
sg34
VX
sa(dp229
g16
VBall
p230
sg18
V6-0
p231
sg20
F1.2287040988911599
sg21
VR
sg22
F1.2231189886149301
sg23
VL
sg24
V450172
p232
sg26
F3.2070497619652265
sg27
F1.4515184346510033
sg28
V4
sg29
I1
sg30
I20
sg31
I0
sg32
V571681
p233
sg34
VB
sa(dp234
g16
VSwinging Strike
p235
sg18
g231
sg20
F1.73219827134491
sg21
VR
sg22
F0.5410228102679
sg23
VL
sg24
g232
sg26
F3.333185070698061
sg27
F1.4507323407327242
sg28
V4
sg29
I2
sg30
I20
sg31
I0
sg32
g233
sg34
VS
sa(dp236
g16
VIn play, out(s)
p237
sg18
g231
sg20
F1.9974157496057301
sg21
VR
sg22
F0.41134923988466399
sg23
VL
sg24
g232
sg26
F3.3164771688265873
sg27
F1.4674538951718823
sg28
V4
sg29
I3
sg30
I20
sg31
I0
sg32
g233
sg34
VX
sa(dp238
g16
VCalled Strike
p239
sg18
V6-1
p240
sg20
F1.93667917772042
sg21
VR
sg22
F-0.33740627915528598
sg23
VL
sg24
V450172
p241
sg26
F3.5698984163524656
sg27
F1.5139908059675342
sg28
V4
sg29
I1
sg30
I21
sg31
I0
sg32
V444482
p242
sg34
VS
sa(dp243
g16
VBall
p244
sg18
g240
sg20
F1.28355828729722
sg21
VR
sg22
F1.10416136611172
sg23
VL
sg24
g241
sg26
F3.3944377328417765
sg27
F1.6318062375555442
sg28
V4
sg29
I2
sg30
I21
sg31
I0
sg32
g242
sg34
VB
sa(dp245
g16
VIn play, out(s)
p246
sg18
g240
sg20
F2.0585738601367298
sg21
VR
sg22
F-0.34534224770963101
sg23
VL
sg24
g241
sg26
F3.5699057292633825
sg27
F1.6150926964297554
sg28
V4
sg29
I3
sg30
I21
sg31
I0
sg32
g242
sg34
VX
sa(dp247
g16
VCalled Strike
p248
sg18
V6-3
p249
sg20
F2.0005938851744398
sg21
VR
sg22
F-0.66772272371661201
sg23
VR
sg24
V450172
p250
sg26
F3.5078284932051389
sg27
F1.6743961237429588
sg28
V4
sg29
I1
sg30
I22
sg31
I0
sg32
V502671
p251
sg34
VS
sa(dp252
g16
VSwinging Strike
p253
sg18
g249
sg20
F1.25742562146604
sg21
VR
sg22
F0.64742078479626197
sg23
VR
sg24
g250
sg26
F3.5090452800442797
sg27
F1.6409656754231499
sg28
V4
sg29
I2
sg30
I22
sg31
I0
sg32
g251
sg34
VS
sa(dp254
g16
VBall
p255
sg18
g249
sg20
F2.87344137931834
sg21
VR
sg22
F1.5360897830673199
sg23
VR
sg24
g250
sg26
F3.5245465511227572
sg27
F1.6919102936057655
sg28
V4
sg29
I3
sg30
I22
sg31
I0
sg32
g251
sg34
VB
sa(dp256
g16
VBall
p257
sg18
g249
sg20
F0.116633181362196
sg21
VR
sg22
F0.94557927222290294
sg23
VR
sg24
g250
sg26
F3.4660622897017106
sg27
F1.608328526304355
sg28
V4
sg29
I4
sg30
I22
sg31
I0
sg32
g251
sg34
VB
sa(dp258
g16
VIn play, out(s)
p259
sg18
g249
sg20
F1.5147580503431199
sg21
VR
sg22
F-0.47435597507418598
sg23
VR
sg24
g250
sg26
F3.5169142948151872
sg27
F1.6739898916070466
sg28
V4
sg29
I5
sg30
I22
sg31
I0
sg32
g251
sg34
VX
sa(dp260
g16
VBall
p261
sg18
V6-6
p262
sg20
F0.95324786601636202
sg21
VR
sg22
F2.01107451890628
sg23
VR
sg24
V517414
p263
sg26
F3.6234546690494476
sg27
F1.6884984477212406
sg28
V4
sg29
I1
sg30
I23
sg31
I1
sg32
V519317
p264
sg34
VB
sa(dp265
g16
VBall
p266
sg18
g262
sg20
F1.05956032058106
sg21
VR
sg22
F-0.60510192553171505
sg23
VR
sg24
g263
sg26
F3.6902952233165145
sg27
F1.8222288670955322
sg28
V4
sg29
I2
sg30
I23
sg31
I1
sg32
g264
sg34
VB
sa(dp267
g16
VCalled Strike
p268
sg18
g262
sg20
F1.50998368098953
sg21
VR
sg22
F0.027795343659606699
sg23
VR
sg24
g263
sg26
F3.6302364354486549
sg27
F1.6791354008597921
sg28
V4
sg29
I3
sg30
I23
sg31
I1
sg32
g264
sg34
VS
sa(dp269
g16
VBall
p270
sg18
g262
sg20
F1.8891697032617001
sg21
VR
sg22
F0.33522826051589399
sg23
VR
sg24
g263
sg26
F3.5730328684184265
sg27
F1.6805587436170271
sg28
V4
sg29
I4
sg30
I23
sg31
I1
sg32
g264
sg34
VB
sa(dp271
g16
VSwinging Strike
p272
sg18
g262
sg20
F1.6944200097744599
sg21
VR
sg22
F1.1668396604867299
sg23
VR
sg24
g263
sg26
F3.6067399667988376
sg27
F1.6634202347747653
sg28
V4
sg29
I5
sg30
I23
sg31
I1
sg32
g264
sg34
VS
sa(dp273
g16
VBall
p274
sg18
g262
sg20
F1.0394150682530701
sg21
VR
sg22
F1.4270253044958301
sg23
VR
sg24
g263
sg26
F3.6069267098970315
sg27
F1.6719899409700751
sg28
V4
sg29
I6
sg30
I23
sg31
I1
sg32
g264
sg34
VB
sa(dp275
g16
VCalled Strike
p276
sg18
V6-3
p277
sg20
F1.85091657630851
sg21
VR
sg22
F0.093859067708225705
sg23
VL
sg24
V517414
p278
sg26
F3.4037260388913211
sg27
F1.662560262466414
sg28
V4
sg29
I1
sg30
I24
sg31
I1
sg32
V592885
p279
sg34
VS
sa(dp280
g16
VFoul
p281
sg18
g277
sg20
F3.7657649620311902
sg21
VR
sg22
F0.37189423571610403
sg23
VL
sg24
g278
sg26
F3.411006233220963
sg27
F1.6458462141693992
sg28
V4
sg29
I2
sg30
I24
sg31
I1
sg32
g279
sg34
VS
sa(dp282
g16
VBall
p283
sg18
g277
sg20
F2.7830380696677901
sg21
VR
sg22
F-1.5034355658434599
sg23
VL
sg24
g278
sg26
F3.3953752899236633
sg27
F1.6207739465145998
sg28
V4
sg29
I3
sg30
I24
sg31
I1
sg32
g279
sg34
VB
sa(dp284
g16
VBall
p285
sg18
g277
sg20
F4.5913858098842404
sg21
VR
sg22
F0.98339818406386204
sg23
VL
sg24
g278
sg26
F3.4204430513150577
sg27
F1.6374923695445709
sg28
V4
sg29
I4
sg30
I24
sg31
I1
sg32
g279
sg34
VB
sa(dp286
g16
VFoul
p287
sg18
g277
sg20
F2.9589726148458899
sg21
VR
sg22
F-0.026066871506935201
sg23
VL
sg24
g278
sg26
F3.502918689470377
sg27
F1.620778215318385
sg28
V4
sg29
I5
sg30
I24
sg31
I1
sg32
g279
sg34
VS
sa(dp288
g16
VIn play, out(s)
p289
sg18
g277
sg20
F2.4297210792030701
sg21
VR
sg22
F0.64266944511612301
sg23
VL
sg24
g278
sg26
F3.4026599571821414
sg27
F1.6542128297990821
sg28
V4
sg29
I6
sg30
I24
sg31
I1
sg32
g279
sg34
VX
sa(dp290
g16
VFoul
p291
sg18
V6-1
p292
sg20
F2.1409771145347301
sg21
VR
sg22
F-0.23524643674246601
sg23
VR
sg24
V517414
p293
sg26
F3.6514183625531089
sg27
F1.7081961548791789
sg28
V4
sg29
I1
sg30
I25
sg31
I1
sg32
V542303
p294
sg34
VS
sa(dp295
g16
VBall
p296
sg18
g292
sg20
F1.6058836562477601
sg21
VR
sg22
F2.2955096207337502
sg23
VR
sg24
g293
sg26
F3.5355309479286774
sg27
F1.6079013268764335
sg28
V4
sg29
I2
sg30
I25
sg31
I1
sg32
g294
sg34
VB
sa(dp297
g16
VIn play, no out
p298
sg18
g292
sg20
F1.3597138709846199
sg21
VR
sg22
F0.63681924325058104
sg23
VR
sg24
g293
sg26
F3.4843260854163596
sg27
F1.6162616205377631
sg28
V4
sg29
I3
sg30
I25
sg31
I1
sg32
g294
sg34
VX
sa(dp299
g16
VIn play, run(s)
p300
sg18
V6-3
p301
sg20
F2.83678817886058
sg21
VR
sg22
F-0.70602336246075403
sg23
VL
sg24
V517414
p302
sg26
F3.5042707180907939
sg27
F1.6154205796611194
sg28
V4
sg29
I1
sg30
I26
sg31
I1
sg32
V571506
p303
sg34
VX
sa(dp304
g16
VSwinging Strike
p305
sg18
V6-1
p306
sg20
F1.4997473327418001
sg21
VR
sg22
F0.41707492500156401
sg23
VR
sg24
V517414
p307
sg26
F3.590623049729011
sg27
F1.6077134246209859
sg28
V4
sg29
I1
sg30
I27
sg31
I1
sg32
V592663
p308
sg34
VS
sa(dp309
g16
VBall
p310
sg18
g306
sg20
F3.6347587436679998
sg21
VR
sg22
F-0.81114074424276394
sg23
VR
sg24
g307
sg26
F3.5051735154260655
sg27
F1.6851490655027916
sg28
V4
sg29
I2
sg30
I27
sg31
I1
sg32
g308
sg34
VB
sa(dp311
g16
VCalled Strike
p312
sg18
g306
sg20
F1.8789731303303101
sg21
VR
sg22
F0.92423288228394196
sg23
VR
sg24
g307
sg26
F3.6668990978902478
sg27
F1.6840158577194302
sg28
V4
sg29
I3
sg30
I27
sg31
I1
sg32
g308
sg34
VS
sa(dp313
g16
VBall
p314
sg18
g306
sg20
F4.8334593943600499
sg21
VR
sg22
F-0.40211432808945402
sg23
VR
sg24
g307
sg26
F3.6668997501574054
sg27
F1.7090907270637814
sg28
V4
sg29
I4
sg30
I27
sg31
I1
sg32
g308
sg34
VB
sa(dp315
g16
VSwinging Strike (Blocked)
p316
sg18
g306
sg20
F0.40271690988886399
sg21
VR
sg22
F1.8038379727637599
sg23
VR
sg24
g307
sg26
F3.6409251906639462
sg27
F1.5661225339072651
sg28
V4
sg29
I5
sg30
I27
sg31
I1
sg32
g308
sg34
VS
sa(dp317
g16
VSwinging Strike
p318
sg18
V6-0
p319
sg20
F2.5581202397742602
sg21
VR
sg22
F-0.14335174050966301
sg23
VL
sg24
V517414
p320
sg26
F3.3173434651063936
sg27
F1.445732971152399
sg28
V4
sg29
I1
sg30
I28
sg31
I1
sg32
V518618
p321
sg34
VS
sa(dp322
g16
VBall
p323
sg18
g319
sg20
F2.89126908650855
sg21
VR
sg22
F0.99925127525457602
sg23
VL
sg24
g320
sg26
F3.2682937143070561
sg27
F1.4300977772140584
sg28
V4
sg29
I2
sg30
I28
sg31
I1
sg32
g321
sg34
VB
sa(dp324
g16
VFoul
p325
sg18
g319
sg20
F2.0601580555727002
sg21
VR
sg22
F-0.90844439941702504
sg23
VL
sg24
g320
sg26
F3.285004619714055
sg27
F1.4133806435070611
sg28
V4
sg29
I3
sg30
I28
sg31
I1
sg32
g321
sg34
VS
sa(dp326
g16
VFoul
p327
sg18
g319
sg20
F3.1446439062404798
sg21
VR
sg22
F0.82222505653093003
sg23
VL
sg24
g320
sg26
F3.226516210199911
sg27
F1.4050220541924396
sg28
V4
sg29
I4
sg30
I28
sg31
I1
sg32
g321
sg34
VS
sa(dp328
g16
VFoul
p329
sg18
g319
sg20
F1.8587704051471901
sg21
VR
sg22
F1.09392978366881
sg23
VL
sg24
g320
sg26
F3.243229183558423
sg27
F1.4133825528307185
sg28
V4
sg29
I5
sg30
I28
sg31
I1
sg32
g321
sg34
VS
sa(dp330
g16
VBall
p331
sg18
g319
sg20
F5.4517547782150304
sg21
VR
sg22
F-0.11331912018829
sg23
VL
sg24
g320
sg26
F3.2515866010657746
sg27
F1.4050258568165077
sg28
V4
sg29
I6
sg30
I28
sg31
I1
sg32
g321
sg34
VB
sa(dp332
g16
VIn play, out(s)
p333
sg18
g319
sg20
F2.4791174065761501
sg21
VR
sg22
F-0.461207590186617
sg23
VL
sg24
g320
sg26
F3.2098107892731917
sg27
F1.4050277599429641
sg28
V4
sg29
I7
sg30
I28
sg31
I1
sg32
g321
sg34
VX
sa(dp334
g16
VBall
p335
sg18
V6-3
p336
sg20
F2.5745496594538402
sg21
VR
sg22
F-1.1938317370291001
sg23
VL
sg24
V450172
p337
sg26
F3.4049201139238896
sg27
F1.5705089514478665
sg28
V5
sg29
I1
sg30
I29
sg31
I0
sg32
V571875
p338
sg34
VB
sa(dp339
g16
VCalled Strike
p340
sg18
g336
sg20
F2.3314608946396498
sg21
VR
sg22
F-0.23495380521356801
sg23
VL
sg24
g337
sg26
F3.3871325010479509
sg27
F1.5527188498015505
sg28
V5
sg29
I2
sg30
I29
sg31
I0
sg32
g338
sg34
VS
sa(dp341
g16
VBall
p342
sg18
g336
sg20
F1.2687737186226
sg21
VR
sg22
F0.43664859824817298
sg23
VL
sg24
g337
sg26
F3.4216304224304466
sg27
F1.5705089428461392
sg28
V5
sg29
I3
sg30
I29
sg31
I0
sg32
g338
sg34
VB
sa(dp343
g16
VBall
p344
sg18
g336
sg20
F0.43508840612919703
sg21
VR
sg22
F0.16700218366908001
sg23
VL
sg24
g337
sg26
F3.4383406870277504
sg27
F1.5705089573354272
sg28
V5
sg29
I4
sg30
I29
sg31
I0
sg32
g338
sg34
VB
sa(dp345
g16
VBall
p346
sg18
g336
sg20
F3.33433032217004
sg21
VR
sg22
F-1.95690491703793
sg23
VL
sg24
g337
sg26
F3.4299855831373947
sg27
F1.5705089707247524
sg28
V5
sg29
I5
sg30
I29
sg31
I0
sg32
g338
sg34
VB
sa(dp347
g16
VCalled Strike
p348
sg18
V6-0
p349
sg20
F2.7844506866845999
sg21
VR
sg22
F0.17294155074933701
sg23
VL
sg24
V450172
p350
sg26
F3.4181377580515679
sg27
F1.541140086087605
sg28
V5
sg29
I1
sg30
I30
sg31
I0
sg32
V543302
p351
sg34
VS
sa(dp352
g16
VBall
p353
sg18
g349
sg20
F1.4954145588701
sg21
VR
sg22
F1.2000244741142001
sg23
VL
sg24
g350
sg26
F3.2666651958872279
sg27
F1.5327817455126933
sg28
V5
sg29
I2
sg30
I30
sg31
I0
sg32
g351
sg34
VB
sa(dp354
g16
VBall
p355
sg18
g349
sg20
F2.7013822160992298
sg21
VR
sg22
F-1.6324785170171401
sg23
VL
sg24
g350
sg26
F3.4337730224374035
sg27
F1.5160669243732059
sg28
V5
sg29
I3
sg30
I30
sg31
I0
sg32
g351
sg34
VB
sa(dp356
g16
VFoul
p357
sg18
g349
sg20
F2.53560096256669
sg21
VR
sg22
F-1.08940282196454
sg23
VL
sg24
g350
sg26
F3.4326962502567397
sg27
F1.6320092040062555
sg28
V5
sg29
I4
sg30
I30
sg31
I0
sg32
g351
sg34
VS
sa(dp358
g16
VFoul
p359
sg18
g349
sg20
F1.2326923540982899
sg21
VR
sg22
F-0.19959909102634801
sg23
VL
sg24
g350
sg26
F3.2990121245296287
sg27
F1.5066352929266067
sg28
V5
sg29
I5
sg30
I30
sg31
I0
sg32
g351
sg34
VS
sa(dp360
g16
VSwinging Strike
p361
sg18
g349
sg20
F1.2378398913621
sg21
VR
sg22
F0.21378392268242499
sg23
VL
sg24
g350
sg26
F3.3324337225290961
sg27
F1.5233521722102381
sg28
V5
sg29
I6
sg30
I30
sg31
I0
sg32
g351
sg34
VS
sa(dp362
g16
VBall In Dirt
p363
sg18
V6-2
p364
sg20
F0.347974858412744
sg21
VR
sg22
F-0.81231613865141294
sg23
VR
sg24
V450172
p365
sg26
F3.586026092674782
sg27
F1.7336074620435156
sg28
V5
sg29
I1
sg30
I31
sg31
I0
sg32
V592273
p366
sg34
VB
sa(dp367
g16
VBall
p368
sg18
g364
sg20
F2.3789929767359399
sg21
VR
sg22
F-2.0289828932003799
sg23
VR
sg24
g365
sg26
F3.7280533532228262
sg27
F1.8255417358141379
sg28
V5
sg29
I2
sg30
I31
sg31
I0
sg32
g366
sg34
VB
sa(dp369
g16
VFoul (Runner Going)
p370
sg18
g364
sg20
F2.4613984402582698
sg21
VR
sg22
F-0.45957317095199801
sg23
VR
sg24
g365
sg26
F3.6423507230068388
sg27
F1.6918140182101666
sg28
V5
sg29
I3
sg30
I31
sg31
I0
sg32
g366
sg34
VS
sa(dp371
g16
VCalled Strike
p372
sg18
g364
sg20
F3.2484015776514998
sg21
VR
sg22
F-0.44055176429548298
sg23
VR
sg24
g365
sg26
F3.670645303142912
sg27
F1.6834541915921122
sg28
V5
sg29
I4
sg30
I31
sg31
I0
sg32
g366
sg34
VS
sa(dp373
g16
VIn play, out(s)
p374
sg18
g364
sg20
F1.57059509148911
sg21
VR
sg22
F0.032161576664273002
sg23
VR
sg24
g365
sg26
F3.4836049350614573
sg27
F1.6500201223375299
sg28
V5
sg29
I5
sg30
I31
sg31
I0
sg32
g366
sg34
VX
sa(dp375
g16
VBall
p376
sg18
V6-1
p377
sg20
F2.5596000688526699
sg21
VR
sg22
F-1.18970102048786
sg23
VL
sg24
V517414
p378
sg26
F3.5416454464562221
sg27
F1.6761645372764917
sg28
V5
sg29
I1
sg30
I32
sg31
I1
sg32
V595375
p379
sg34
VB
sa(dp380
g16
VCalled Strike
p381
sg18
g377
sg20
F1.3315115865679601
sg21
VR
sg22
F-0.23763798826906901
sg23
VL
sg24
g378
sg26
F3.439679290073844
sg27
F1.701805045840338
sg28
V5
sg29
I2
sg30
I32
sg31
I1
sg32
g379
sg34
VS
sa(dp382
g16
VBall
p383
sg18
g377
sg20
F1.3721468405418999
sg21
VR
sg22
F-1.3674230376091701
sg23
VL
sg24
g378
sg26
F3.5249336021192583
sg27
F1.6176550648772867
sg28
V5
sg29
I3
sg30
I32
sg31
I1
sg32
g379
sg34
VB
sa(dp384
g16
VFoul
p385
sg18
g377
sg20
F2.0023184045344702
sg21
VR
sg22
F-1.12356096966909
sg23
VL
sg24
g378
sg26
F3.5416438195476481
sg27
F1.6176551833751809
sg28
V5
sg29
I4
sg30
I32
sg31
I1
sg32
g379
sg34
VS
sa(dp386
g16
VFoul
p387
sg18
g377
sg20
F3.0468604103160501
sg21
VR
sg22
F0.64083497530476996
sg23
VL
sg24
g378
sg26
F3.5416439075801165
sg27
F1.5925802553045578
sg28
V5
sg29
I5
sg30
I32
sg31
I1
sg32
g379
sg34
VS
sa(dp388
g16
VFoul
p389
sg18
g377
sg20
F0.80804974757190395
sg21
VR
sg22
F0.176648207368923
sg23
VL
sg24
g378
sg26
F3.4497374844916742
sg27
F1.567505164602256
sg28
V5
sg29
I6
sg30
I32
sg31
I1
sg32
g379
sg34
VS
sa(dp390
g16
VFoul
p391
sg18
g377
sg20
F1.9989951116081399
sg21
VR
sg22
F-0.169369819449735
sg23
VL
sg24
g378
sg26
F3.391248577649705
sg27
F1.6009369056721248
sg28
V5
sg29
I7
sg30
I32
sg31
I1
sg32
g379
sg34
VS
sa(dp392
g16
VCalled Strike
p393
sg18
g377
sg20
F1.48922262092159
sg21
VR
sg22
F-0.494253241096138
sg23
VL
sg24
g378
sg26
F3.3901134417549059
sg27
F1.5918687240993741
sg28
V5
sg29
I8
sg30
I32
sg31
I1
sg32
g379
sg34
VS
sa(dp394
g16
VIn play, no out
p395
sg18
V6-0
p396
sg20
F2.85292280973436
sg21
VR
sg22
F-0.097571336849512302
sg23
VR
sg24
V517414
p397
sg26
F3.4424680269458356
sg27
F1.6436101331796884
sg28
V5
sg29
I1
sg30
I33
sg31
I1
sg32
V450172
p398
sg34
VX
sa(dp399
g16
VIn play, no out
p400
sg18
V5-11
p401
sg20
F2.9170847636772401
sg21
VR
sg22
F0.176512899705807
sg23
VL
sg24
V517414
p402
sg26
F3.3038663959849259
sg27
F1.4883785946413823
sg28
V5
sg29
I1
sg30
I34
sg31
I1
sg32
V543829
p403
sg34
VX
sa(dp404
g16
VBall In Dirt
p405
sg18
V6-6
p406
sg20
F0.89656213418092201
sg21
VR
sg22
F0.71096674010712901
sg23
VR
sg24
V517414
p407
sg26
F3.6331790012452316
sg27
F1.6898930761439921
sg28
V5
sg29
I1
sg30
I35
sg31
I1
sg32
V519317
p408
sg34
VB
sa(dp409
g16
VCalled Strike
p410
sg18
g406
sg20
F2.3010663496271202
sg21
VR
sg22
F0.65971057891905505
sg23
VR
sg24
g407
sg26
F3.674954142414439
sg27
F1.6982529005550013
sg28
V5
sg29
I2
sg30
I35
sg31
I1
sg32
g408
sg34
VS
sa(dp411
g16
VIn play, out(s)
p412
sg18
g406
sg20
F2.03951465616078
sg21
VR
sg22
F-0.47460696592937801
sg23
VR
sg24
g407
sg26
F3.7334397735958476
sg27
F1.6898985877007036
sg28
V5
sg29
I3
sg30
I35
sg31
I1
sg32
g408
sg34
VX
sa(dp413
g16
VIn play, out(s)
p414
sg18
V6-2
p415
sg20
F2.8236414566368802
sg21
VR
sg22
F0.59188058876553495
sg23
VR
sg24
V450172
p416
sg26
F3.5404941726253583
sg27
F1.7565346968370363
sg28
V6
sg29
I1
sg30
I36
sg31
I0
sg32
V605113
p417
sg34
VX
sa(dp418
g16
VCalled Strike
p419
sg18
V6-0
p420
sg20
F2.6994836151249602
sg21
VR
sg22
F-0.61789186682295005
sg23
VR
sg24
V450172
p421
sg26
F3.2170964030568285
sg27
F1.5072562276370824
sg28
V6
sg29
I1
sg30
I37
sg31
I0
sg32
V425772
p422
sg34
VS
sa(dp423
g16
VIn play, out(s)
p424
sg18
g420
sg20
F2.2749150862201399
sg21
VR
sg22
F-0.63905006806803299
sg23
VR
sg24
g421
sg26
F3.3130581154240168
sg27
F1.4978265883364834
sg28
V6
sg29
I2
sg30
I37
sg31
I0
sg32
g422
sg34
VX
sa(dp425
g16
VCalled Strike
p426
sg18
V6-4
p427
sg20
F2.8769051918517201
sg21
VR
sg22
F-0.010107003975287999
sg23
VR
sg24
V450172
p428
sg26
F3.5628578065178225
sg27
F1.661612326057277
sg28
V6
sg29
I1
sg30
I38
sg31
I0
sg32
V517414
p429
sg34
VS
sa(dp430
g16
VIn play, out(s)
p431
sg18
g427
sg20
F2.5912743802149798
sg21
VR
sg22
F-0.16105967470186799
sg23
VR
sg24
g428
sg26
F3.3712226166235943
sg27
F1.6178367559335562
sg28
V6
sg29
I2
sg30
I38
sg31
I0
sg32
g429
sg34
VX
sa(dp432
g16
VBall
p433
sg18
V6-3
p434
sg20
F0.72301988765487701
sg21
VR
sg22
F-0.46014017701360699
sg23
VL
sg24
V517414
p435
sg26
F3.4632443892991951
sg27
F1.6301344720630553
sg28
V6
sg29
I1
sg30
I39
sg31
I1
sg32
V592885
p436
sg34
VB
sa(dp437
g16
VCalled Strike
p438
sg18
g434
sg20
F1.3963612746223799
sg21
VR
sg22
F-0.571577173789662
sg23
VL
sg24
g435
sg26
F3.4128307094036821
sg27
F1.32439890422879
sg28
V6
sg29
I2
sg30
I39
sg31
I1
sg32
g436
sg34
VS
sa(dp439
g16
VBall
p440
sg18
g434
sg20
F3.6421624078528998
sg21
VR
sg22
F-1.1716931132625701
sg23
VL
sg24
g435
sg26
F3.4715993973745718
sg27
F1.6050592882106223
sg28
V6
sg29
I3
sg30
I39
sg31
I1
sg32
g436
sg34
VB
sa(dp441
g16
VFoul
p442
sg18
g434
sg20
F2.5899310833849398
sg21
VR
sg22
F-0.51035873657937103
sg23
VL
sg24
g435
sg26
F3.3787847282332493
sg27
F1.6470448039427517
sg28
V6
sg29
I4
sg30
I39
sg31
I1
sg32
g436
sg34
VS
sa(dp443
g16
VBall
p444
sg18
g434
sg20
F3.3747007960592401
sg21
VR
sg22
F1.32680158356137
sg23
VL
sg24
g435
sg26
F3.4049293939032417
sg27
F1.6386884693012327
sg28
V6
sg29
I5
sg30
I39
sg31
I1
sg32
g436
sg34
VB
sa(dp445
g16
VIn play, no out
p446
sg18
g434
sg20
F2.3524334752038198
sg21
VR
sg22
F-0.79496129967206097
sg23
VL
sg24
g435
sg26
F3.3787883117856659
sg27
F1.6470483918637164
sg28
V6
sg29
I6
sg30
I39
sg31
I1
sg32
g436
sg34
VX
sa(dp447
g16
VFoul
p448
sg18
V6-1
p449
sg20
F2.7670531201255399
sg21
VR
sg22
F-0.37445632187400202
sg23
VR
sg24
V517414
p450
sg26
F3.594129189696325
sg27
F1.675957681114614
sg28
V6
sg29
I1
sg30
I40
sg31
I1
sg32
V542303
p451
sg34
VS
sa(dp452
g16
VSwinging Strike
p453
sg18
g449
sg20
F1.45145710292202
sg21
VR
sg22
F-0.26392429626388803
sg23
VR
sg24
g450
sg26
F3.5857761993298993
sg27
F1.6676014321711676
sg28
V6
sg29
I2
sg30
I40
sg31
I1
sg32
g451
sg34
VS
sa(dp454
g16
VBall
p455
sg18
g449
sg20
F4.0187771131496204
sg21
VR
sg22
F0.27554846179695802
sg23
VR
sg24
g450
sg26
F3.6035649082592265
sg27
F1.6090962618606035
sg28
V6
sg29
I3
sg30
I40
sg31
I1
sg32
g451
sg34
VB
sa(dp456
g16
VFoul
p457
sg18
g449
sg20
F2.6456971656839698
sg21
VR
sg22
F-0.83479412562338895
sg23
VR
sg24
g450
sg26
F3.560713382962291
sg27
F1.6508869611565551
sg28
V6
sg29
I4
sg30
I40
sg31
I1
sg32
g451
sg34
VS
sa(dp458
g16
VIn play, out(s)
p459
sg18
g449
sg20
F2.1525765272969402
sg21
VR
sg22
F0.71043274723420602
sg23
VR
sg24
g450
sg26
F3.5941326219057927
sg27
F1.7093932265068013
sg28
V6
sg29
I5
sg30
I40
sg31
I1
sg32
g451
sg34
VX
sa(dp460
g16
VFoul
p461
sg18
V6-3
p462
sg20
F2.1081193623368701
sg21
VL
sg22
F0.30637938076709798
sg23
VL
sg24
V519008
p463
sg26
F3.5806548339866602
sg27
F1.6166106120075447
sg28
V6
sg29
I1
sg30
I41
sg31
I1
sg32
V571506
p464
sg34
VS
sa(dp465
g16
VIn play, out(s)
p466
sg18
g462
sg20
F1.96041311653562
sg21
VL
sg22
F0.70550829885197197
sg23
VL
sg24
g463
sg26
F3.5221704630616522
sg27
F1.7001915028848309
sg28
V6
sg29
I2
sg30
I41
sg31
I1
sg32
g464
sg34
VX
sa(dp467
g16
VBall
p468
sg18
V6-1
p469
sg20
F3.0805220094502701
sg21
VL
sg22
F2.47388930103644
sg23
VR
sg24
V519008
p470
sg26
F3.6097646049336198
sg27
F1.7021083228366791
sg28
V6
sg29
I1
sg30
I42
sg31
I1
sg32
V592663
p471
sg34
VB
sa(dp472
g16
VBall
p473
sg18
g469
sg20
F2.8077063289957498
sg21
VL
sg22
F1.77217531257463
sg23
VR
sg24
g470
sg26
F3.664964507981832
sg27
F1.629716317888775
sg28
V6
sg29
I2
sg30
I42
sg31
I1
sg32
g471
sg34
VB
sa(dp474
g16
VCalled Strike
p475
sg18
V6-0
p476
sg20
F2.0837290332529901
sg21
VL
sg22
F-0.035932494771360103
sg23
VL
sg24
V519008
p477
sg26
F3.3012769107852193
sg27
F1.5010537806917803
sg28
V6
sg29
I1
sg30
I43
sg31
I1
sg32
V518618
p478
sg34
VS
sa(dp479
g16
VFoul
p480
sg18
g476
sg20
F2.3390927769657401
sg21
VL
sg22
F0.47748663137516401
sg23
VL
sg24
g477
sg26
F3.3231139113155166
sg27
F1.490637293672318
sg28
V6
sg29
I2
sg30
I43
sg31
I1
sg32
g478
sg34
VS
sa(dp481
g16
VBall
p482
sg18
g476
sg20
F1.3699969509324801
sg21
VL
sg22
F-0.117665431667229
sg23
VL
sg24
g477
sg26
F3.289690696373011
sg27
F1.4655605989532461
sg28
V6
sg29
I3
sg30
I43
sg31
I1
sg32
g478
sg34
VB
sa(dp483
g16
VFoul
p484
sg18
g476
sg20
F2.5341617565651702
sg21
VL
sg22
F0.89488302643093498
sg23
VL
sg24
g477
sg26
F3.2898615072163473
sg27
F1.4908323897069735
sg28
V6
sg29
I4
sg30
I43
sg31
I1
sg32
g478
sg34
VS
sa(dp485
g16
VFoul
p486
sg18
g476
sg20
F1.8207838536127801
sg21
VL
sg22
F0.82089882945383497
sg23
VL
sg24
g477
sg26
F3.164522204176933
sg27
F1.4741129824316666
sg28
V6
sg29
I5
sg30
I43
sg31
I1
sg32
g478
sg34
VS
sa(dp487
g16
VFoul
p488
sg18
g476
sg20
F1.7685572381238499
sg21
VL
sg22
F1.0018354121441699
sg23
VL
sg24
g477
sg26
F3.1979439465700814
sg27
F1.4072404507489189
sg28
V6
sg29
I6
sg30
I43
sg31
I1
sg32
g478
sg34
VS
sa(dp489
g16
VFoul
p490
sg18
g476
sg20
F1.3668628856709899
sg21
VL
sg22
F0.21153702376749101
sg23
VL
sg24
g477
sg26
F3.2480770060629567
sg27
F1.4573915813350702
sg28
V6
sg29
I7
sg30
I43
sg31
I1
sg32
g478
sg34
VS
sa(dp491
g16
VIn play, out(s)
p492
sg18
g476
sg20
F1.93703200263144
sg21
VL
sg22
F0.68709153813086898
sg23
VL
sg24
g477
sg26
F3.2480731858047491
sg27
F1.4824640654307011
sg28
V6
sg29
I8
sg30
I43
sg31
I1
sg32
g478
sg34
VX
sa(dp493
g16
VCalled Strike
p494
sg18
V6-0
p495
sg20
F1.9639063316342
sg21
VR
sg22
F-0.252174905824253
sg23
VL
sg24
V450172
p496
sg26
F3.3607958434099956
sg27
F1.5252182124583946
sg28
V7
sg29
I1
sg30
I44
sg31
I0
sg32
V571681
p497
sg34
VS
sa(dp498
g16
VCalled Strike
p499
sg18
g495
sg20
F3.0396938990457398
sg21
VR
sg22
F-0.18977025890004001
sg23
VL
sg24
g496
sg26
F3.2688837579734482
sg27
F1.575369749479858
sg28
V7
sg29
I2
sg30
I44
sg31
I0
sg32
g497
sg34
VS
sa(dp500
g16
VSwinging Strike
p501
sg18
g495
sg20
F2.17636689080669
sg21
VR
sg22
F-1.2237559128158
sg23
VL
sg24
g496
sg26
F3.3357290631799188
sg27
F1.5502940279116544
sg28
V7
sg29
I3
sg30
I44
sg31
I0
sg32
g497
sg34
VS
sa(dp502
g16
VCalled Strike
p503
sg18
V6-1
p504
sg20
F2.15571126494239
sg21
VR
sg22
F-1.18791871340283
sg23
VL
sg24
V450172
p505
sg26
F3.5248831891753802
sg27
F1.5416983831751629
sg28
V7
sg29
I1
sg30
I45
sg31
I0
sg32
V444482
p506
sg34
VS
sa(dp507
g16
VBall
p508
sg18
g504
sg20
F2.12531874483905
sg21
VR
sg22
F-1.23400031455693
sg23
VL
sg24
g505
sg26
F3.5578830080782602
sg27
F1.6361932771682319
sg28
V7
sg29
I2
sg30
I45
sg31
I0
sg32
g506
sg34
VB
sa(dp509
g16
VFoul
p510
sg18
g504
sg20
F1.48260566641442
sg21
VR
sg22
F0.19187019293225999
sg23
VL
sg24
g505
sg26
F3.5079324573849107
sg27
F1.6196817083169712
sg28
V7
sg29
I3
sg30
I45
sg31
I0
sg32
g506
sg34
VS
sa(dp511
g16
VBall
p512
sg18
g504
sg20
F0.167854554944047
sg21
VR
sg22
F0.56684408124973096
sg23
VL
sg24
g505
sg26
F3.4661541325674889
sg27
F1.6196797807576182
sg28
V7
sg29
I4
sg30
I45
sg31
I0
sg32
g506
sg34
VB
sa(dp513
g16
VBall
p514
sg18
g504
sg20
F3.89781650035059
sg21
VR
sg22
F-2.3838673207588599
sg23
VL
sg24
g505
sg26
F3.4661503103003675
sg27
F1.619675972443325
sg28
V7
sg29
I5
sg30
I45
sg31
I0
sg32
g506
sg34
VB
sa(dp515
g16
VIn play, out(s)
p516
sg18
g504
sg20
F2.6274340450478002
sg21
VR
sg22
F-0.71682485987689104
sg23
VL
sg24
g505
sg26
F3.4995676253738885
sg27
F1.6280305949565985
sg28
V7
sg29
I6
sg30
I45
sg31
I0
sg32
g506
sg34
VX
sa(dp517
g16
VCalled Strike
p518
sg18
V6-3
p519
sg20
F2.6926117931514302
sg21
VR
sg22
F-0.45162387963190798
sg23
VR
sg24
V450172
p520
sg26
F3.5590417472597942
sg27
F1.6546560878726133
sg28
V7
sg29
I1
sg30
I46
sg31
I0
sg32
V502671
p521
sg34
VS
sa(dp522
g16
VSwinging Strike
p523
sg18
g519
sg20
F1.13285504502931
sg21
VR
sg22
F0.0862352162357196
sg23
VR
sg24
g520
sg26
F3.5537118413059687
sg27
F1.6550221405703134
sg28
V7
sg29
I2
sg30
I46
sg31
I0
sg32
g521
sg34
VS
sa(dp524
g16
VBall
p525
sg18
g519
sg20
F1.5734592706284101
sg21
VR
sg22
F-0.62274362574997
sg23
VR
sg24
g520
sg26
F3.3723950195055004
sg27
F1.6022619181864179
sg28
V7
sg29
I3
sg30
I46
sg31
I0
sg32
g521
sg34
VB
sa(dp526
g16
VSwinging Strike
p527
sg18
g519
sg20
F2.37579367723658
sg21
VR
sg22
F-0.62061459503243299
sg23
VR
sg24
g520
sg26
F3.5352652447980901
sg27
F1.7539536665661686
sg28
V7
sg29
I4
sg30
I46
sg31
I0
sg32
g521
sg34
VS
sa(dp528
g16
VFoul
p529
sg18
V6-1
p530
sg20
F2.1044087514497698
sg21
VL
sg22
F0.65591625277217802
sg23
VL
sg24
V519008
p531
sg26
F3.4755645388127725
sg27
F1.6831980314009556
sg28
V7
sg29
I1
sg30
I47
sg31
I1
sg32
V595375
p532
sg34
VS
sa(dp533
g16
VIn play, out(s)
p534
sg18
g530
sg20
F1.7805377281975501
sg21
VL
sg22
F-0.302526605337955
sg23
VL
sg24
g531
sg26
F3.5417574615132672
sg27
F1.5906192687011753
sg28
V7
sg29
I2
sg30
I47
sg31
I1
sg32
g532
sg34
VX
sa(dp535
g16
VCalled Strike
p536
sg18
V6-0
p537
sg20
F1.6166629007069699
sg21
VL
sg22
F0.028574078676781599
sg23
VR
sg24
V519008
p538
sg26
F3.7294691139465037
sg27
F1.5357387032749159
sg28
V7
sg29
I1
sg30
I48
sg31
I1
sg32
V450172
p539
sg34
VS
sa(dp540
g16
VSwinging Strike
p541
sg18
g537
sg20
F1.1229952264724301
sg21
VL
sg22
F0.56022275368948304
sg23
VR
sg24
g538
sg26
F3.8376403609244605
sg27
F1.7828118868890463
sg28
V7
sg29
I2
sg30
I48
sg31
I1
sg32
g539
sg34
VS
sa(dp542
g16
VBall
p543
sg18
g537
sg20
F0.28163741282273702
sg21
VL
sg22
F-1.6698069895335099
sg23
VR
sg24
g538
sg26
F3.5955254331304829
sg27
F1.7662866852340429
sg28
V7
sg29
I3
sg30
I48
sg31
I1
sg32
g539
sg34
VB
sa(dp544
g16
VSwinging Strike
p545
sg18
g537
sg20
F1.6396553602878201
sg21
VL
sg22
F1.2824273132314601
sg23
VR
sg24
g538
sg26
F3.6122330661136175
sg27
F1.774642695313613
sg28
V7
sg29
I4
sg30
I48
sg31
I1
sg32
g539
sg34
VS
sa(dp546
g16
VBall
p547
sg18
V5-11
p548
sg20
F2.2275370776099002
sg21
VL
sg22
F1.58116531152217
sg23
VL
sg24
V519008
p549
sg26
F3.1786450865743276
sg27
F1.3386615931310004
sg28
V7
sg29
I1
sg30
I49
sg31
I1
sg32
V543829
p550
sg34
VB
sa(dp551
g16
VCalled Strike
p552
sg18
g548
sg20
F1.58979955622008
sg21
VL
sg22
F0.50649296053705295
sg23
VL
sg24
g549
sg26
F3.1953544561077614
sg27
F1.3219426372535565
sg28
V7
sg29
I2
sg30
I49
sg31
I1
sg32
g550
sg34
VS
sa(dp553
g16
VBall
p554
sg18
g548
sg20
F0.78085256073363296
sg21
VL
sg22
F-0.75767791285874597
sg23
VL
sg24
g549
sg26
F3.2036792160530148
sg27
F1.2801176985395877
sg28
V7
sg29
I3
sg30
I49
sg31
I1
sg32
g550
sg34
VB
sa(dp555
g16
VFoul
p556
sg18
g548
sg20
F2.6196760160698398
sg21
VL
sg22
F1.33062432859072
sg23
VL
sg24
g549
sg26
F3.355165130208956
sg27
F1.3755041451959293
sg28
V7
sg29
I4
sg30
I49
sg31
I1
sg32
g550
sg34
VS
sa(dp557
g16
VSwinging Strike
p558
sg18
g548
sg20
F1.25318407547814
sg21
VL
sg22
F-0.16977991178441301
sg23
VL
sg24
g549
sg26
F3.3802328062850826
sg27
F1.3838648970212084
sg28
V7
sg29
I5
sg30
I49
sg31
I1
sg32
g550
sg34
VS
sa(dp559
g16
VCalled Strike
p560
sg18
V6-3
p561
sg20
F2.3458085015260499
sg21
VR
sg22
F-0.46709539792467197
sg23
VL
sg24
V450172
p562
sg26
F3.3675783390832912
sg27
F1.592075569640464
sg28
V8
sg29
I1
sg30
I50
sg31
I0
sg32
V571875
p563
sg34
VS
sa(dp564
g16
VBall
p565
sg18
g561
sg20
F2.9252609690587001
sg21
VR
sg22
F-1.36750442977622
sg23
VL
sg24
g562
sg26
F3.4451321040625054
sg27
F1.7281573436720166
sg28
V8
sg29
I2
sg30
I50
sg31
I0
sg32
g563
sg34
VB
sa(dp566
g16
VFoul Tip
p567
sg18
g561
sg20
F1.5593642584374601
sg21
VR
sg22
F0.105418362451686
sg23
VL
sg24
g562
sg26
F3.3412310424539591
sg27
F1.6529387843009644
sg28
V8
sg29
I3
sg30
I50
sg31
I0
sg32
g563
sg34
VS
sa(dp568
g16
VSwinging Strike
p569
sg18
g561
sg20
F0.929229076637624
sg21
VR
sg22
F-0.225352653030987
sg23
VL
sg24
g562
sg26
F3.4331372798802064
sg27
F1.5610006233603286
sg28
V8
sg29
I4
sg30
I50
sg31
I0
sg32
g563
sg34
VS
sa(dp570
g16
VBall
p571
sg18
V6-0
p572
sg20
F1.1724164485067901
sg21
VR
sg22
F0.61176119630397896
sg23
VL
sg24
V450172
p573
sg26
F3.4669934032115819
sg27
F1.6686029301360819
sg28
V8
sg29
I1
sg30
I51
sg31
I0
sg32
V543302
p574
sg34
VB
sa(dp575
g16
VBall
p576
sg18
g572
sg20
F0.86217978107994098
sg21
VR
sg22
F-0.26209356212820401
sg23
VL
sg24
g573
sg26
F3.4085090668581586
sg27
F1.5599488660786669
sg28
V8
sg29
I2
sg30
I51
sg31
I0
sg32
g574
sg34
VB
sa(dp577
g16
VBall
p578
sg18
g572
sg20
F3.7064415546067901
sg21
VR
sg22
F-1.4886044249710599
sg23
VL
sg24
g573
sg26
F3.3583790011345833
sg27
F1.5181582437664147
sg28
V8
sg29
I3
sg30
I51
sg31
I0
sg32
g574
sg34
VB
sa(dp579
g16
VCalled Strike
p580
sg18
g572
sg20
F2.2556611621050999
sg21
VR
sg22
F-0.836333508085772
sg23
VL
sg24
g573
sg26
F3.3523801534505715
sg27
F1.5515913725480495
sg28
V8
sg29
I4
sg30
I51
sg31
I0
sg32
g574
sg34
VS
sa(dp581
g16
VBall In Dirt
p582
sg18
g572
sg20
F-0.080018780914163007
sg21
VR
sg22
F0.96840119577447403
sg23
VL
sg24
g573
sg26
F3.4252223032320614
sg27
F1.6602482684134507
sg28
V8
sg29
I5
sg30
I51
sg31
I0
sg32
g574
sg34
VB
sa(dp583
g16
VFoul
p584
sg18
V6-2
p585
sg20
F1.9587640984757899
sg21
VR
sg22
F-1.1705448193257899
sg23
VR
sg24
V450172
p586
sg26
F3.6381548076141925
sg27
F1.7542919255975669
sg28
V8
sg29
I1
sg30
I52
sg31
I0
sg32
V592273
p587
sg34
VS
sa(dp588
g16
VIn play, out(s)
p589
sg18
g585
sg20
F1.97653998223726
sg21
VR
sg22
F-0.25865310796706698
sg23
VR
sg24
g586
sg26
F3.6214480369555311
sg27
F1.7542941798121987
sg28
V8
sg29
I2
sg30
I52
sg31
I0
sg32
g587
sg34
VX
sa(dp590
g16
VBall
p591
sg18
V6-6
p592
sg20
F0.99129463831245901
sg21
VR
sg22
F0.53364517205850703
sg23
VR
sg24
V543331
p593
sg26
F3.8050327770609051
sg27
F1.8269165916072865
sg28
V8
sg29
I1
sg30
I53
sg31
I1
sg32
V519317
p594
sg34
VB
sa(dp595
g16
VBall
p596
sg18
g592
sg20
F1.4892999094080701
sg21
VR
sg22
F1.65180746519759
sg23
VR
sg24
g593
sg26
F3.7716182250395818
sg27
F1.8436339861596487
sg28
V8
sg29
I2
sg30
I53
sg31
I1
sg32
g594
sg34
VB
sa(dp597
g16
VBall
p598
sg18
g592
sg20
F2.7640431983433298
sg21
VR
sg22
F-1.04370430444984
sg23
VR
sg24
g593
sg26
F3.7382033857764192
sg27
F1.8102059028729478
sg28
V8
sg29
I3
sg30
I53
sg31
I1
sg32
g594
sg34
VB
sa(dp599
g16
VBall
p600
sg18
g592
sg20
F2.4585187289414199
sg21
VR
sg22
F1.5131940057914299
sg23
VR
sg24
g593
sg26
F3.7632667752479421
sg27
F1.851994139646429
sg28
V8
sg29
I4
sg30
I53
sg31
I1
sg32
g594
sg34
VB
sa(dp601
g16
VCalled Strike
p602
sg18
V6-3
p603
sg20
F1.91491420408611
sg21
VR
sg22
F0.54725428652035502
sg23
VL
sg24
V543331
p604
sg26
F3.6122471953695374
sg27
F1.7744231355401503
sg28
V8
sg29
I1
sg30
I54
sg31
I1
sg32
V592885
p605
sg34
VS
sa(dp606
g16
VBall
p607
sg18
g603
sg20
F2.1865538523883798
sg21
VR
sg22
F2.1280932571170101
sg23
VL
sg24
g604
sg26
F3.5203459175697667
sg27
F1.7075613264961866
sg28
V8
sg29
I2
sg30
I54
sg31
I1
sg32
g605
sg34
VB
sa(dp608
g16
VCalled Strike
p609
sg18
g603
sg20
F2.2818503322029899
sg21
VR
sg22
F-0.63961561423200297
sg23
VL
sg24
g604
sg26
F3.4702172435465641
sg27
F1.66577224717091
sg28
V8
sg29
I3
sg30
I54
sg31
I1
sg32
g605
sg34
VS
sa(dp610
g16
VBall
p611
sg18
g603
sg20
F1.5113289644418699
sg21
VR
sg22
F1.34397636712556
sg23
VL
sg24
g604
sg26
F3.4702195935228097
sg27
F1.6657744988653356
sg28
V8
sg29
I4
sg30
I54
sg31
I1
sg32
g605
sg34
VB
sa(dp612
g16
VFoul
p613
sg18
g603
sg20
F3.0116264960213202
sg21
VR
sg22
F-0.43624392974287601
sg23
VL
sg24
g604
sg26
F3.434446049122581
sg27
F1.6490608548141807
sg28
V8
sg29
I5
sg30
I54
sg31
I1
sg32
g605
sg34
VS
sa(dp614
g16
VIn play, no out
p615
sg18
g603
sg20
F2.8291991297028898
sg21
VR
sg22
F-0.40579681464531703
sg23
VL
sg24
g604
sg26
F3.4093833675105358
sg27
F1.6657790028442854
sg28
V8
sg29
I6
sg30
I54
sg31
I1
sg32
g605
sg34
VX
sa(dp616
g16
VBall
p617
sg18
V6-1
p618
sg20
F2.8612369586175799
sg21
VR
sg22
F1.4093778141429201
sg23
VR
sg24
V543331
p619
sg26
F3.6096850132127614
sg27
F1.712769721065893
sg28
V8
sg29
I1
sg30
I55
sg31
I1
sg32
V542303
p620
sg34
VB
sa(dp621
g16
VIn play, run(s)
p622
sg18
g618
sg20
F2.84370442962978
sg21
VR
sg22
F0.898070449196537
sg23
VR
sg24
g619
sg26
F3.4736550198983061
sg27
F1.7545609176480319
sg28
V8
sg29
I2
sg30
I55
sg31
I1
sg32
g620
sg34
VX
sa(dp623
g16
VBall
p624
sg18
V6-3
p625
sg20
F4.0042300982217398
sg21
VR
sg22
F-1.10839622403508
sg23
VL
sg24
V543331
p626
sg26
F3.4974359914236537
sg27
F1.5787993236931044
sg28
V8
sg29
I1
sg30
I56
sg31
I1
sg32
V571506
p627
sg34
VB
sa(dp628
g16
VBall
p629
sg18
g625
sg20
F2.84373365488901
sg21
VR
sg22
F-1.1230868421681399
sg23
VL
sg24
g626
sg26
F3.6311118128724758
sg27
F1.745958465073052
sg28
V8
sg29
I2
sg30
I56
sg31
I1
sg32
g627
sg34
VB
sa(dp630
g16
VIn play, run(s)
p631
sg18
g625
sg20
F2.0296131178059902
sg21
VR
sg22
F0.35344781426913702
sg23
VL
sg24
g626
sg26
F3.6394647901933972
sg27
F1.7793876910540511
sg28
V8
sg29
I3
sg30
I56
sg31
I1
sg32
g627
sg34
VX
sa(dp632
g16
VCalled Strike
p633
sg18
V6-1
p634
sg20
F1.8214075546125299
sg21
VR
sg22
F0.98592179119801904
sg23
VR
sg24
V543331
p635
sg26
F3.7720656855068704
sg27
F1.7318413913265935
sg28
V8
sg29
I1
sg30
I57
sg31
I1
sg32
V592663
p636
sg34
VS
sa(dp637
g16
VSwinging Strike
p638
sg18
g634
sg20
F2.1475629556187101
sg21
VR
sg22
F0.57851659507823605
sg23
VR
sg24
g635
sg26
F3.6360393933929807
sg27
F1.7211313992609405
sg28
V8
sg29
I2
sg30
I57
sg31
I1
sg32
g636
sg34
VS
sa(dp639
g16
VFoul
p640
sg18
g634
sg20
F1.2720027189454901
sg21
VR
sg22
F1.1405880293442701
sg23
VR
sg24
g635
sg26
F3.5190742469120408
sg27
F1.6375526746819631
sg28
V8
sg29
I3
sg30
I57
sg31
I1
sg32
g636
sg34
VS
sa(dp641
g16
VSwinging Strike
p642
sg18
g634
sg20
F3.4531634216620501
sg21
VR
sg22
F1.53854468713099
sg23
VR
sg24
g635
sg26
F3.5190765976773264
sg27
F1.6542708773868036
sg28
V8
sg29
I4
sg30
I57
sg31
I1
sg32
g636
sg34
VS
sa(dp643
g16
VSwinging Strike (Blocked)
p644
sg18
V6-1
p645
sg20
F0.64765085706236802
sg21
VR
sg22
F0.83081152194572805
sg23
VL
sg24
V543331
p646
sg26
F3.5177925855725327
sg27
F1.6669342094594093
sg28
V8
sg29
I1
sg30
I59
sg31
I1
sg32
V595375
p647
sg34
VS
sa(dp648
g16
VIn play, out(s)
p649
sg18
g645
sg20
F1.05954418830144
sg21
VR
sg22
F0.16720469532839299
sg23
VL
sg24
g646
sg26
F3.5261497403973898
sg27
F1.6585785141391334
sg28
V8
sg29
I2
sg30
I59
sg31
I1
sg32
g647
sg34
VX
sa(dp650
g16
VCalled Strike
p651
sg18
V6-0
p652
sg20
F2.8581885108769298
sg21
VR
sg22
F-0.36804134297975
sg23
VR
sg24
V543331
p653
sg26
F3.6396916859099022
sg27
F1.7757454780941586
sg28
V8
sg29
I1
sg30
I60
sg31
I1
sg32
V450172
p654
sg34
VS
sa(dp655
g16
VSwinging Strike
p656
sg18
g652
sg20
F1.53333137452907
sg21
VR
sg22
F0.59251930908486306
sg23
VR
sg24
g653
sg26
F3.6216985967518305
sg27
F1.8008207713214226
sg28
V8
sg29
I2
sg30
I60
sg31
I1
sg32
g654
sg34
VS
sa(dp657
g16
VSwinging Strike
p658
sg18
g652
sg20
F1.2413891678921001
sg21
VR
sg22
F1.02155935001805
sg23
VR
sg24
g653
sg26
F3.5799277555559605
sg27
F1.7841076869208621
sg28
V8
sg29
I3
sg30
I60
sg31
I1
sg32
g654
sg34
VS
sa(dp659
g16
VFoul
p660
sg18
V6-2
p661
sg20
F2.3009432510216699
sg21
VR
sg22
F-0.386690804998093
sg23
VR
sg24
V450172
p662
sg26
F3.4561097766622275
sg27
F1.7329085392031942
sg28
V9
sg29
I1
sg30
I61
sg31
I0
sg32
V605113
p663
sg34
VS
sa(dp664
g16
VSwinging Strike
p665
sg18
g661
sg20
F2.0692823080371299
sg21
VR
sg22
F-1.0173652001076401
sg23
VR
sg24
g662
sg26
F3.3892700731648056
sg27
F1.5991818512412266
sg28
V9
sg29
I2
sg30
I61
sg31
I0
sg32
g663
sg34
VS
sa(dp666
g16
VFoul
p667
sg18
g661
sg20
F1.8513240507044999
sg21
VR
sg22
F-0.81603566405892103
sg23
VR
sg24
g662
sg26
F3.3892705051268628
sg27
F1.649330355607443
sg28
V9
sg29
I3
sg30
I61
sg31
I0
sg32
g663
sg34
VS
sa(dp668
g16
VSwinging Strike (Blocked)
p669
sg18
g661
sg20
F0.40541888274495902
sg21
VR
sg22
F0.59350202506421001
sg23
VR
sg24
g662
sg26
F3.4561110863879136
sg27
F1.6326147057353246
sg28
V9
sg29
I4
sg30
I61
sg31
I0
sg32
g663
sg34
VS
sa(dp670
g16
VBall
p671
sg18
V5-10
p672
sg20
F3.3478242947178001
sg21
VR
sg22
F-1.3967636994472401
sg23
VL
sg24
V450172
p673
sg26
F3.0332271021778752
sg27
F1.3800129630946607
sg28
V9
sg29
I1
sg30
I62
sg31
I0
sg32
V518614
p674
sg34
VB
sa(dp675
g16
VBall
p676
sg18
g672
sg20
F0.98036865954470198
sg21
VR
sg22
F-1.07318892106728
sg23
VL
sg24
g673
sg26
F3.0499410703516183
sg27
F1.4050907521581202
sg28
V9
sg29
I2
sg30
I62
sg31
I0
sg32
g674
sg34
VB
sa(dp677
g16
VCalled Strike
p678
sg18
g672
sg20
F2.7917435542111901
sg21
VR
sg22
F-0.95645822172469597
sg23
VL
sg24
g673
sg26
F3.0917222105406594
sg27
F1.4719603707155713
sg28
V9
sg29
I3
sg30
I62
sg31
I0
sg32
g674
sg34
VS
sa(dp679
g16
VFoul
p680
sg18
g672
sg20
F1.6584868638138299
sg21
VR
sg22
F0.75615588802307399
sg23
VL
sg24
g673
sg26
F3.0750130541734251
sg27
F1.4218121668051893
sg28
V9
sg29
I4
sg30
I62
sg31
I0
sg32
g674
sg34
VS
sa(dp681
g16
VSwinging Strike
p682
sg18
g672
sg20
F1.00717313478515
sg21
VR
sg22
F0.69469106629325805
sg23
VL
sg24
g673
sg26
F3.158572058658617
sg27
F1.4552480975038335
sg28
V9
sg29
I5
sg30
I62
sg31
I0
sg32
g674
sg34
VS
sa(dp683
g16
VCalled Strike
p684
sg18
V5-10
p685
sg20
F3.0851919777846799
sg21
VR
sg22
F-0.23018829573201399
sg23
VR
sg24
V450172
p686
sg26
F3.0060398853033803
sg27
F1.3204627817248316
sg28
V9
sg29
I1
sg30
I63
sg31
I0
sg32
V572008
p687
sg34
VS
sa(dp688
g16
VFoul
p689
sg18
g685
sg20
F1.0289673096252201
sg21
VR
sg22
F1.03073130972574
sg23
VR
sg24
g686
sg26
F3.064531184442945
sg27
F1.4207659304239151
sg28
V9
sg29
I2
sg30
I63
sg31
I0
sg32
g687
sg34
VS
sa(dp690
g16
VSwinging Strike (Blocked)
p691
sg18
g685
sg20
F0.47910351351880298
sg21
VR
sg22
F-0.31993182586659802
sg23
VR
sg24
g686
sg26
F3.0979545753009923
sg27
F1.4792750669150898
sg28
V9
sg29
I3
sg30
I63
sg31
I0
sg32
g687
sg34
VS
sasS'teams'
p692
(lp693
(dp694
S'short_name'
p695
VArizona
p696
sS'wins'
p697
V34
p698
sS'losses'
p699
V24
p700
sS'team_flag'
p701
Vaway
p702
sS'full_name'
p703
VArizona Diamondbacks
p704
sS'team_code'
p705
Vari
p706
sS'id'
p707
V109
p708
sa(dp709
S'short_name'
p710
VMiami
p711
sS'wins'
p712
V23
p713
sS'losses'
p714
V31
p715
sS'team_flag'
p716
Vhome
p717
sS'full_name'
p718
VMiami Marlins
p719
sS'team_code'
p720
Vmia
p721
sS'id'
p722
V146
p723
sasS'date'
p724
VJune 3, 2017
p725
sS'game_id'
p726
V2017/06/03/arimlb-miamlb-1
p727
s.