(dp1
Vvenue_id
p2
V1
sVvenue_name
p3
VAngel Stadium of Anaheim
p4
sVumpire
p5
(dp6
Vid
p7
V594151
p8
sVname
p9
VRamon De Jesus
p10
ssVgame_type
p11
VR
sVatbat
p12
(lp13
(dp14
Vatbat_count
p15
V1
sVhandedness
p16
VR
sVpitches
p17
(lp18
(dp19
Vpz
p20
V1.53817377268
p21
sVpx
p22
V1.18072638099
p23
sVdes
p24
VBall
p25
sVsz_top
p26
V3.5592912074879877
p27
sVsz_bottom
p28
V1.8151906493480823
p29
sVtype
p30
VB
sa(dp31
Vpz
p32
V2.44736417357
p33
sVpx
p34
V-0.0290931150856
p35
sVdes
p36
VFoul
p37
sVsz_top
p38
V3.747510224798461
p39
sVsz_bottom
p40
V1.5369833247540186
p41
sVtype
p42
VS
sa(dp43
Vpz
p44
V2.87436107242
p45
sVpx
p46
V-0.388151195237
p47
sVdes
p48
VIn play, out(s)
p49
sVsz_top
p50
V3.747510147201524
p51
sVsz_bottom
p52
V1.5369832456022081
p53
sVtype
p54
VX
sasVbatter_height
p55
V6-0
p56
sVinning_count
p57
V1
sVpitcher_id
p58
V642229
p59
sVisHome
p60
I0
sVbatter_id
p61
V607680
p62
sVp_throws
p63
VR
sa(dp64
Vatbat_count
p65
V2
sVhandedness
p66
VL
sVpitches
p67
(lp68
(dp69
Vpz
p70
V0.418852448397
p71
sVpx
p72
V1.22784531478
p73
sVdes
p74
VBall
p75
sVsz_top
p76
V3.5451140156887035
p77
sVsz_bottom
p78
V1.7407296594213264
p79
sVtype
p80
VB
sa(dp81
Vpz
p82
V3.24855102958
p83
sVpx
p84
V-1.02727563967
p85
sVdes
p86
VSwinging Strike
p87
sVsz_top
p88
V3.69552325545682
p89
sVsz_bottom
p90
V1.5149889332397493
p91
sVtype
p92
VS
sa(dp93
Vpz
p94
V2.56291040369
p95
sVpx
p96
V-0.520625330115
p97
sVdes
p98
VMissed Bunt
p99
sVsz_top
p100
V3.6955231055769246
p101
sVsz_bottom
p102
V1.5149887805507731
p103
sVtype
p104
VS
sa(dp105
Vpz
p106
V0.859536095902
p107
sVpx
p108
V-0.0434158778449
p109
sVdes
p110
VBall
p111
sVsz_top
p112
V3.4097387138821347
p113
sVsz_bottom
p114
V1.6955827211751142
p115
sVtype
p116
VB
sa(dp117
Vpz
p118
V0.919032189066
p119
sVpx
p120
V-0.500116411698
p121
sVdes
p122
VIn play, no out
p123
sVsz_top
p124
V3.695523028109406
p125
sVsz_bottom
p126
V1.5149887015518786
p127
sVtype
p128
VX
sasVbatter_height
p129
V5-11
p130
sVinning_count
p131
V1
sVpitcher_id
p132
V642229
p133
sVisHome
p134
I0
sVbatter_id
p135
V485567
p136
sVp_throws
p137
VR
sa(dp138
Vatbat_count
p139
V3
sVhandedness
p140
VR
sVpitches
p141
(lp142
(dp143
Vpz
p144
V3.55391917811
p145
sVpx
p146
V0.139811112235
p147
sVdes
p148
VBall
p149
sVsz_top
p150
V3.3147405278753013
p151
sVsz_bottom
p152
V1.7202842291399776
p153
sVtype
p154
VB
sa(dp155
Vpz
p156
V1.25575047384
p157
sVpx
p158
V-0.127027627425
p159
sVdes
p160
VCalled Strike
p161
sVsz_top
p162
V3.523584614370641
p163
sVsz_bottom
p164
V1.645840925943908
p165
sVtype
p166
VS
sa(dp167
Vpz
p168
V1.94959144151
p169
sVpx
p170
V0.831444416906
p171
sVdes
p172
VIn play, out(s)
p173
sVsz_top
p174
V3.7490193014949256
p175
sVsz_bottom
p176
V1.5389653490988593
p177
sVtype
p178
VX
sasVbatter_height
p179
V6-0
p180
sVinning_count
p181
V1
sVpitcher_id
p182
V642229
p183
sVisHome
p184
I0
sVbatter_id
p185
V430832
p186
sVp_throws
p187
VR
sa(dp188
Vatbat_count
p189
V4
sVhandedness
p190
VL
sVpitches
p191
(lp192
(dp193
Vpz
p194
V1.87107488166
p195
sVpx
p196
V-0.213710071058
p197
sVdes
p198
VSwinging Strike
p199
sVsz_top
p200
V3.7475098410565835
p201
sVsz_bottom
p202
V1.536982933195354
p203
sVtype
p204
VS
sa(dp205
Vpz
p206
V2.56524190594
p207
sVpx
p208
V-1.41674858533
p209
sVdes
p210
VBall
p211
sVsz_top
p212
V3.94302654690312
p213
sVsz_bottom
p214
V1.7777705667488277
p215
sVtype
p216
VB
sa(dp217
Vpz
p218
V1.81135445749
p219
sVpx
p220
V0.356380038539
p221
sVdes
p222
VCalled Strike
p223
sVsz_top
p224
V3.9129478426515902
p225
sVsz_bottom
p226
V1.807867554876232
p227
sVtype
p228
VS
sa(dp229
Vpz
p230
V-0.469354916949
p231
sVpx
p232
V1.4420583247
p233
sVdes
p234
VBall In Dirt
p235
sVsz_top
p236
V3.822710033782201
p237
sVsz_bottom
p238
V1.837964306771589
p239
sVtype
p240
VB
sa(dp241
Vpz
p242
V1.62305709596
p243
sVpx
p244
V0.234009810555
p245
sVdes
p246
VSwinging Strike
p247
sVsz_top
p248
V3.7475097648386964
p249
sVsz_bottom
p250
V1.53698285550486
p251
sVtype
p252
VS
sasVbatter_height
p253
V6-1
p254
sVinning_count
p255
V1
sVpitcher_id
p256
V642229
p257
sVisHome
p258
I0
sVbatter_id
p259
V434778
p260
sVp_throws
p261
VR
sa(dp262
Vatbat_count
p263
V5
sVhandedness
p264
VL
sVpitches
p265
(lp266
(dp267
Vpz
p268
V4.32240324841
p269
sVpx
p270
V-0.279158706457
p271
sVdes
p272
VBall
p273
sVsz_top
p274
V3.2864444688151266
p275
sVsz_bottom
p276
V1.7768785948406816
p277
sVtype
p278
VB
sa(dp279
Vpz
p280
V2.55435249573
p281
sVpx
p282
V-0.395735075688
p283
sVdes
p284
VIn play, out(s)
p285
sVsz_top
p286
V3.6775274396567923
p287
sVsz_bottom
p288
V1.5059909022369098
p289
sVtype
p290
VX
sasVbatter_height
p291
V5-10
p292
sVinning_count
p293
V1
sVpitcher_id
p294
V573186
p295
sVisHome
p296
I1
sVbatter_id
p297
V594777
p298
sVp_throws
p299
VR
sa(dp300
Vatbat_count
p301
V6
sVhandedness
p302
VR
sVpitches
p303
(lp304
(dp305
Vpz
p306
V2.59752210611
p307
sVpx
p308
V0.0585032251761
p309
sVdes
p310
VFoul
p311
sVsz_top
p312
V3.843485384790256
p313
sVsz_bottom
p314
V1.5909686402260377
p315
sVtype
p316
VS
sa(dp317
Vpz
p318
V4.75620759359
p319
sVpx
p320
V0.739181552608
p321
sVdes
p322
VBall
p323
sVsz_top
p324
V3.843485383458763
p325
sVsz_bottom
p326
V1.8167035151432387
p327
sVtype
p328
VB
sa(dp329
Vpz
p330
V2.41650398234
p331
sVpx
p332
V-0.291603640295
p333
sVdes
p334
VCalled Strike
p335
sVsz_top
p336
V3.7081242349776673
p337
sVsz_bottom
p338
V1.8317518163291737
p339
sVtype
p340
VS
sa(dp341
Vpz
p342
V2.77492589911
p343
sVpx
p344
V1.09083296971
p345
sVdes
p346
VBall
p347
sVsz_top
p348
V3.6780430466551195
p349
sVsz_bottom
p350
V1.7866064272024715
p351
sVtype
p352
VB
sa(dp353
Vpz
p354
V1.12197631155
p355
sVpx
p356
V0.0990267845728
p357
sVdes
p358
VIn play, no out
p359
sVsz_top
p360
V3.843485383458763
p361
sVsz_bottom
p362
V1.5909686387600246
p363
sVtype
p364
VX
sasVbatter_height
p365
V6-2
p366
sVinning_count
p367
V1
sVpitcher_id
p368
V573186
p369
sVisHome
p370
I1
sVbatter_id
p371
V545361
p372
sVp_throws
p373
VR
sa(dp374
Vatbat_count
p375
V7
sVhandedness
p376
VR
sVpitches
p377
(lp378
(dp379
Vpz
p380
V2.75319719606
p381
sVpx
p382
V-0.541922037057
p383
sVdes
p384
VCalled Strike
p385
sVsz_top
p386
V3.460380407604852
p387
sVsz_bottom
p388
V1.6782120401626344
p389
sVtype
p390
VS
sa(dp391
Vpz
p392
V2.35975754732
p393
sVpx
p394
V0.0867832035636
p395
sVdes
p396
VIn play, no out
p397
sVsz_top
p398
V3.8664794180176045
p399
sVsz_bottom
p400
V1.6029653469667124
p401
sVtype
p402
VX
sasVbatter_height
p403
V6-3
p404
sVinning_count
p405
V1
sVpitcher_id
p406
V573186
p407
sVisHome
p408
I1
sVbatter_id
p409
V405395
p410
sVp_throws
p411
VR
sa(dp412
Vatbat_count
p413
V8
sVhandedness
p414
VR
sVpitches
p415
(lp416
(dp417
Vpz
p418
V2.30555786765
p419
sVpx
p420
V-0.56212553705
p421
sVdes
p422
VIn play, out(s)
p423
sVsz_top
p424
V3.866479416054993
p425
sVsz_bottom
p426
V1.6029653448413725
p427
sVtype
p428
VX
sasVbatter_height
p429
V6-4
p430
sVinning_count
p431
V1
sVpitcher_id
p432
V573186
p433
sVisHome
p434
I1
sVbatter_id
p435
V543068
p436
sVp_throws
p437
VR
sa(dp438
Vatbat_count
p439
V9
sVhandedness
p440
VL
sVpitches
p441
(lp442
(dp443
Vpz
p444
V1.94593710694
p445
sVpx
p446
V0.290364499734
p447
sVdes
p448
VCalled Strike
p449
sVsz_top
p450
V3.8953856685264086
p451
sVsz_bottom
p452
V1.9449783169207393
p453
sVtype
p454
VS
sa(dp455
Vpz
p456
V0.232804130433
p457
sVpx
p458
V-0.15308122356
p459
sVdes
p460
VBall
p461
sVsz_top
p462
V3.8653065174193344
p463
sVsz_bottom
p464
V1.960026011957467
p465
sVtype
p466
VB
sa(dp467
Vpz
p468
V1.62440238018
p469
sVpx
p470
V2.0712399469
p471
sVdes
p472
VBall
p473
sVsz_top
p474
V3.7901071808988505
p475
sVsz_bottom
p476
V1.929930485980755
p477
sVtype
p478
VB
sa(dp479
Vpz
p480
V1.95786190839
p481
sVpx
p482
V-0.93899469736
p483
sVdes
p484
VFoul
p485
sVsz_top
p486
V3.9254645051218873
p487
sVsz_bottom
p488
V1.628958542308709
p489
sVtype
p490
VS
sa(dp491
Vpz
p492
V2.99667191456
p493
sVpx
p494
V-1.23669634536
p495
sVdes
p496
VIn play, out(s)
p497
sVsz_top
p498
V3.9254644307739
p499
sVsz_bottom
p500
V1.628958466449916
p501
sVtype
p502
VX
sasVbatter_height
p503
V6-4
p504
sVinning_count
p505
V2
sVpitcher_id
p506
V642229
p507
sVisHome
p508
I0
sVbatter_id
p509
V475253
p510
sVp_throws
p511
VR
sa(dp512
Vatbat_count
p513
V10
p514
sVhandedness
p515
VR
sVpitches
p516
(lp517
(dp518
Vpz
p519
V3.54301561074
p520
sVpx
p521
V0.21440979778
p522
sVdes
p523
VBall
p524
sVsz_top
p525
V3.2427150964255134
p526
sVsz_bottom
p527
V1.5991926182906937
p528
sVtype
p529
VB
sa(dp530
Vpz
p531
V1.64993378942
p532
sVpx
p533
V0.804149252088
p534
sVdes
p535
VCalled Strike
p536
sVsz_top
p537
V3.3308310725201125
p538
sVsz_bottom
p539
V1.5038035930450206
p540
sVtype
p541
VS
sa(dp542
Vpz
p543
V2.95594076617
p544
sVpx
p545
V0.0824927045403
p546
sVdes
p547
VCalled Strike
p548
sVsz_top
p549
V3.6790540304048065
p550
sVsz_bottom
p551
V1.8389759738327527
p552
sVtype
p553
VS
sa(dp554
Vpz
p555
V3.4169274721
p556
sVpx
p557
V0.531367568263
p558
sVdes
p559
VFoul
p560
sVsz_top
p561
V3.6775272086089146
p562
sVsz_bottom
p563
V1.5059906662664062
p564
sVtype
p565
VS
sa(dp566
Vpz
p567
V2.24931325241
p568
sVpx
p569
V-1.52852916594
p570
sVdes
p571
VBall
p572
sVsz_top
p573
V3.557199582515487
p574
sVsz_bottom
p575
V1.7467811183530415
p576
sVtype
p577
VB
sa(dp578
Vpz
p579
V3.23661058954
p580
sVpx
p581
V0.295758526786
p582
sVdes
p583
VIn play, out(s)
p584
sVsz_top
p585
V3.677527208447728
p586
sVsz_bottom
p587
V1.5059906661017095
p588
sVtype
p589
VX
sasVbatter_height
p590
V5-10
p591
sVinning_count
p592
V2
sVpitcher_id
p593
V642229
p594
sVisHome
p595
I0
sVbatter_id
p596
V431145
p597
sVp_throws
p598
VR
sa(dp599
Vatbat_count
p600
V11
p601
sVhandedness
p602
VL
sVpitches
p603
(lp604
(dp605
Vpz
p606
V2.10304234942
p607
sVpx
p608
V0.748230089311
p609
sVdes
p610
VBall
p611
sVsz_top
p612
V3.5081439664468377
p613
sVsz_bottom
p614
V1.6347920982706086
p615
sVtype
p616
VB
sa(dp617
Vpz
p618
V3.28533363373
p619
sVpx
p620
V-1.43919873429
p621
sVdes
p622
VBall
p623
sVsz_top
p624
V3.560313719887283
p625
sVsz_bottom
p626
V1.7807164595146006
p627
sVtype
p628
VB
sa(dp629
Vpz
p630
V1.49046775446
p631
sVpx
p632
V-0.181237666813
p633
sVdes
p634
VSwinging Strike
p635
sVsz_top
p636
V3.677527209437706
p637
sVsz_bottom
p638
V1.5059906671080796
p639
sVtype
p640
VS
sa(dp641
Vpz
p642
V1.73923753788
p643
sVpx
p644
V0.34343740254
p645
sVdes
p646
VCalled Strike
p647
sVsz_top
p648
V3.5136441209579203
p649
sVsz_bottom
p650
V1.748708171902571
p651
sVtype
p652
VS
sa(dp653
Vpz
p654
V3.21483512713
p655
sVpx
p656
V-1.12410519145
p657
sVdes
p658
VSwinging Strike
p659
sVsz_top
p660
V3.6775271354430146
p661
sVsz_bottom
p662
V1.505990591803993
p663
sVtype
p664
VS
sasVbatter_height
p665
V6-0
p666
sVinning_count
p667
V2
sVpitcher_id
p668
V642229
p669
sVisHome
p670
I0
sVbatter_id
p671
V458085
p672
sVp_throws
p673
VR
sa(dp674
Vatbat_count
p675
V12
p676
sVhandedness
p677
VR
sVpitches
p678
(lp679
(dp680
Vpz
p681
V3.22456178856
p682
sVpx
p683
V-1.02499781544
p684
sVdes
p685
VFoul Bunt
p686
sVsz_top
p687
V3.843485081743637
p688
sVsz_bottom
p689
V1.590968330803726
p690
sVtype
p691
VS
sa(dp692
Vpz
p693
V2.43354488554
p694
sVpx
p695
V-0.484074392655
p696
sVdes
p697
VIn play, no out
p698
sVsz_top
p699
V3.843485082154885
p700
sVsz_bottom
p701
V1.59096833122139
p702
sVtype
p703
VX
sasVbatter_height
p704
V6-2
p705
sVinning_count
p706
V2
sVpitcher_id
p707
V573186
p708
sVisHome
p709
I1
sVbatter_id
p710
V592743
p711
sVp_throws
p712
VR
sa(dp713
Vatbat_count
p714
V13
p715
sVhandedness
p716
VR
sVpitches
p717
(lp718
(dp719
Vpz
p720
V2.39281662126
p721
sVpx
p722
V-1.17249063632
p723
sVdes
p724
VBall
p725
sVsz_top
p726
V3.6220537556660446
p727
sVsz_bottom
p728
V1.8679532255551763
p729
sVtype
p730
VB
sa(dp731
Vpz
p732
V2.1122825496
p733
sVpx
p734
V1.09390971729
p735
sVdes
p736
VBall
p737
sVsz_top
p738
V3.607012783440645
p739
sVsz_bottom
p740
V1.8077600206629114
p741
sVtype
p742
VB
sa(dp743
Vpz
p744
V1.79465933559
p745
sVpx
p746
V-0.495951192181
p747
sVdes
p748
VSwinging Strike
p749
sVsz_top
p750
V3.787499254491415
p751
sVsz_bottom
p752
V1.566974613152425
p753
sVtype
p754
VS
sa(dp755
Vpz
p756
V3.30879847459
p757
sVpx
p758
V-0.524181673771
p759
sVdes
p760
VIn play, out(s)
p761
sVsz_top
p762
V3.7874992538596928
p763
sVsz_bottom
p764
V1.5669746124948318
p765
sVtype
p766
VX
sasVbatter_height
p767
V6-1
p768
sVinning_count
p769
V2
sVpitcher_id
p770
V573186
p771
sVisHome
p772
I1
sVbatter_id
p773
V527043
p774
sVp_throws
p775
VR
sa(dp776
Vatbat_count
p777
V14
p778
sVhandedness
p779
VL
sVpitches
p780
(lp781
(dp782
Vpz
p783
V2.40593402872
p784
sVpx
p785
V-0.0993511223983
p786
sVdes
p787
VCalled Strike
p788
sVsz_top
p789
V3.1651444151958046
p790
sVsz_bottom
p791
V1.5792943822583965
p792
sVtype
p793
VS
sa(dp794
Vpz
p795
V3.39339381503
p796
sVpx
p797
V-1.26795091808
p798
sVdes
p799
VBall
p800
sVsz_top
p801
V3.1501010542365435
p802
sVsz_bottom
p803
V1.5040451317139016
p804
sVtype
p805
VB
sa(dp806
Vpz
p807
V1.51988058864
p808
sVpx
p809
V0.23247352179
p810
sVdes
p811
VIn play, out(s)
p812
sVsz_top
p813
V3.66153119392461
p814
sVsz_bottom
p815
V1.4889950462791788
p816
sVtype
p817
VX
sasVbatter_height
p818
V5-9
p819
sVinning_count
p820
V2
sVpitcher_id
p821
V573186
p822
sVisHome
p823
I1
sVbatter_id
p824
V519184
p825
sVp_throws
p826
VR
sa(dp827
Vatbat_count
p828
V15
p829
sVhandedness
p830
VR
sVpitches
p831
(lp832
(dp833
Vpz
p834
V2.28018151799
p835
sVpx
p836
V0.322583234385
p837
sVdes
p838
VCalled Strike
p839
sVsz_top
p840
V3.4810368196751327
p841
sVsz_bottom
p842
V1.6394923646704243
p843
sVtype
p844
VS
sa(dp845
Vpz
p846
V1.30525607019
p847
sVpx
p848
V1.22202339642
p849
sVdes
p850
VBall
p851
sVsz_top
p852
V3.5261614736153817
p853
sVsz_bottom
p854
V1.6996890871414791
p855
sVtype
p856
VB
sa(dp857
Vpz
p858
V2.90317874322
p859
sVpx
p860
V-0.241749393652
p861
sVdes
p862
VIn play, out(s)
p863
sVsz_top
p864
V3.6615311932930794
p865
sVsz_bottom
p866
V1.4889950456209533
p867
sVtype
p868
VX
sasVbatter_height
p869
V5-9
p870
sVinning_count
p871
V3
sVpitcher_id
p872
V642229
p873
sVisHome
p874
I0
sVbatter_id
p875
V581527
p876
sVp_throws
p877
VR
sa(dp878
Vatbat_count
p879
V16
p880
sVhandedness
p881
VL
sVpitches
p882
(lp883
(dp884
Vpz
p885
V2.9429229954
p886
sVpx
p887
V-2.30293771488
p888
sVdes
p889
VBall
p890
sVsz_top
p891
V3.6775271319487075
p892
sVsz_bottom
p893
V1.7768784957015171
p894
sVtype
p895
VB
sa(dp896
Vpz
p897
V3.92275371851
p898
sVpx
p899
V-0.433444223455
p900
sVdes
p901
VBall
p902
sVsz_top
p903
V3.6775271313164737
p904
sVsz_bottom
p905
V1.8069755771912952
p906
sVtype
p907
VB
sa(dp908
Vpz
p909
V2.31058697862
p910
sVpx
p911
V-0.679812452363
p912
sVdes
p913
VCalled Strike
p914
sVsz_top
p915
V3.67752713010681
p916
sVsz_bottom
p917
V1.746781096338374
p918
sVtype
p919
VS
sa(dp920
Vpz
p921
V3.02837717521
p922
sVpx
p923
V-1.02915124384
p924
sVdes
p925
VBall
p926
sVsz_top
p927
V3.6775271289541323
p928
sVsz_bottom
p929
V1.7317322785668239
p930
sVtype
p931
VB
sa(dp932
Vpz
p933
V1.26424328673
p934
sVpx
p935
V-0.525962081518
p936
sVdes
p937
VIn play, out(s)
p938
sVsz_top
p939
V3.6775271319487075
p940
sVsz_bottom
p941
V1.5059905881721107
p942
sVtype
p943
VX
sasVbatter_height
p944
V5-10
p945
sVinning_count
p946
V3
sVpitcher_id
p947
V642229
p948
sVisHome
p949
I0
sVbatter_id
p950
V572365
p951
sVp_throws
p952
VR
sa(dp953
Vatbat_count
p954
V17
p955
sVhandedness
p956
VR
sVpitches
p957
(lp958
(dp959
Vpz
p960
V3.65143142878
p961
sVpx
p962
V0.0569949214606
p963
sVdes
p964
VBall
p965
sVsz_top
p966
V3.3714778969121397
p967
sVsz_bottom
p968
V1.7326241822709676
p969
sVtype
p970
VB
sa(dp971
Vpz
p972
V3.76946173835
p973
sVpx
p974
V-1.15150493352
p975
sVdes
p976
VBall
p977
sVsz_top
p978
V3.431646236573073
p979
sVsz_bottom
p980
V1.6874772728787235
p981
sVtype
p982
VB
sa(dp983
Vpz
p984
V1.32690768691
p985
sVpx
p986
V0.140521119753
p987
sVdes
p988
VBall
p989
sVsz_top
p990
V3.5218963869686988
p991
sVsz_bottom
p992
V1.7476729916656382
p993
sVtype
p994
VB
sa(dp995
Vpz
p996
V3.28197140474
p997
sVpx
p998
V-0.909923834722
p999
sVdes
p1000
VBall
p1001
sVsz_top
p1002
V3.5670204010586133
p1003
sVsz_bottom
p1004
V1.8379642106077299
p1005
sVtype
p1006
VB
sasVbatter_height
p1007
V6-0
p1008
sVinning_count
p1009
V3
sVpitcher_id
p1010
V642229
p1011
sVisHome
p1012
I0
sVbatter_id
p1013
V607680
p1014
sVp_throws
p1015
VR
sa(dp1016
Vatbat_count
p1017
V18
p1018
sVhandedness
p1019
VL
sVpitches
p1020
(lp1021
(dp1022
Vpz
p1023
V2.25908951946
p1024
sVpx
p1025
V-1.67912066754
p1026
sVdes
p1027
VBall
p1028
sVsz_top
p1029
V3.7490183773291292
p1030
sVsz_bottom
p1031
V1.5389644057981755
p1032
sVtype
p1033
VB
sa(dp1034
Vpz
p1035
V1.22430388354
p1036
sVpx
p1037
V-1.37042064233
p1038
sVdes
p1039
VBall
p1040
sVsz_top
p1041
V3.3881208691371683
p1042
sVsz_bottom
p1043
V1.8097786119174373
p1044
sVtype
p1045
VB
sa(dp1046
Vpz
p1047
V3.83062272243
p1048
sVpx
p1049
V-1.64817123753
p1050
sVdes
p1051
VBall
p1052
sVsz_top
p1053
V3.3430055390130207
p1054
sVsz_bottom
p1055
V1.749599850779866
p1056
sVtype
p1057
VB
sa(dp1058
Vpz
p1059
V1.55083278985
p1060
sVpx
p1061
V0.17903261463
p1062
sVdes
p1063
VCalled Strike
p1064
sVsz_top
p1065
V3.1315003832570625
p1066
sVsz_bottom
p1067
V1.3687164213627767
p1068
sVtype
p1069
VS
sasVbatter_height
p1070
V5-11
p1071
sVinning_count
p1072
V3
sVpitcher_id
p1073
V642229
p1074
sVisHome
p1075
I0
sVbatter_id
p1076
V485567
p1077
sVp_throws
p1078
VR
sa(dp1079
Vatbat_count
p1080
V19
p1081
sVhandedness
p1082
VR
sVpitches
p1083
(lp1084
(dp1085
Vpz
p1086
V2.02691800347
p1087
sVpx
p1088
V-0.0480296627226
p1089
sVdes
p1090
VCalled Strike
p1091
sVsz_top
p1092
V3.718945291416503
p1093
sVsz_bottom
p1094
V1.7195100044622649
p1095
sVtype
p1096
VS
sa(dp1097
Vpz
p1098
V1.81216523992
p1099
sVpx
p1100
V-0.384716768932
p1101
sVdes
p1102
VCalled Strike
p1103
sVsz_top
p1104
V3.6587981888519465
p1105
sVsz_bottom
p1106
V1.7947340380697696
p1107
sVtype
p1108
VS
sa(dp1109
Vpz
p1110
V2.5423313578
p1111
sVpx
p1112
V-1.26638189471
p1113
sVdes
p1114
VBall
p1115
sVsz_top
p1116
V3.747509379896961
p1117
sVsz_bottom
p1118
V1.8229158708608395
p1119
sVtype
p1120
VB
sa(dp1121
Vpz
p1122
V1.57861903295
p1123
sVpx
p1124
V-0.552383164138
p1125
sVdes
p1126
VCalled Strike
p1127
sVsz_top
p1128
V3.6121437073788982
p1129
sVsz_bottom
p1130
V1.6874772717078557
p1131
sVtype
p1132
VS
sasVbatter_height
p1133
V6-0
p1134
sVinning_count
p1135
V3
sVpitcher_id
p1136
V573186
p1137
sVisHome
p1138
I1
sVbatter_id
p1139
V455117
p1140
sVp_throws
p1141
VR
sa(dp1142
Vatbat_count
p1143
V20
p1144
sVhandedness
p1145
VL
sVpitches
p1146
(lp1147
(dp1148
Vpz
p1149
V1.00515508634
p1150
sVpx
p1151
V-0.194833572804
p1152
sVdes
p1153
VBall
p1154
sVsz_top
p1155
V3.4316462354176167
p1156
sVsz_bottom
p1157
V1.7476729916656382
p1158
sVtype
p1159
VB
sa(dp1160
Vpz
p1161
V2.26477002636
p1162
sVpx
p1163
V-1.17214116679
p1164
sVdes
p1165
VBall
p1166
sVsz_top
p1167
V3.296265699410938
p1168
sVsz_bottom
p1169
V1.7627217249024554
p1170
sVtype
p1171
VB
sa(dp1172
Vpz
p1173
V2.10877730537
p1174
sVpx
p1175
V-0.584166914575
p1176
sVdes
p1177
VFoul
p1178
sVsz_top
p1179
V3.747509379896961
p1180
sVsz_bottom
p1181
V1.5369824625437403
p1182
sVtype
p1183
VS
sa(dp1184
Vpz
p1185
V1.79597699144
p1186
sVpx
p1187
V0.0859831900377
p1188
sVdes
p1189
VIn play, out(s)
p1190
sVsz_top
p1191
V3.747509379896961
p1192
sVsz_bottom
p1193
V1.5369824625437403
p1194
sVtype
p1195
VX
sasVbatter_height
p1196
V5-11
p1197
sVinning_count
p1198
V3
sVpitcher_id
p1199
V573186
p1200
sVisHome
p1201
I1
sVbatter_id
p1202
V460060
p1203
sVp_throws
p1204
VR
sa(dp1205
Vatbat_count
p1206
V21
p1207
sVhandedness
p1208
VL
sVpitches
p1209
(lp1210
(dp1211
Vpz
p1212
V3.68351928406
p1213
sVpx
p1214
V-1.41975527914
p1215
sVdes
p1216
VBall
p1217
sVsz_top
p1218
V3.274356385153837
p1219
sVsz_bottom
p1220
V1.5751875547115546
p1221
sVtype
p1222
VB
sa(dp1223
Vpz
p1224
V3.57182304696
p1225
sVpx
p1226
V-1.82253141036
p1227
sVdes
p1228
VBall
p1229
sVsz_top
p1230
V3.244270727326274
p1231
sVsz_bottom
p1232
V1.665484185864095
p1233
sVtype
p1234
VB
sa(dp1235
Vpz
p1236
V3.91692558316
p1237
sVpx
p1238
V-0.795594047621
p1239
sVdes
p1240
VBall
p1241
sVsz_top
p1242
V3.1991416506778734
p1243
sVsz_bottom
p1244
V1.5149882264726173
p1245
sVtype
p1246
VB
sa(dp1247
Vpz
p1248
V2.1599496504
p1249
sVpx
p1250
V0.043459381131
p1251
sVdes
p1252
VCalled Strike
p1253
sVsz_top
p1254
V3.1840984678188136
p1255
sVsz_bottom
p1256
V1.6353856236349031
p1257
sVtype
p1258
VS
sa(dp1259
Vpz
p1260
V2.68288108849
p1261
sVpx
p1262
V0.0482466268469
p1263
sVdes
p1264
VAutomatic Ball
p1265
sVsz_top
p1266
V3.319
p1267
sVsz_bottom
p1268
V1.513
p1269
sVtype
p1270
VB
sasVbatter_height
p1271
V5-10
p1272
sVinning_count
p1273
V3
sVpitcher_id
p1274
V573186
p1275
sVisHome
p1276
I1
sVbatter_id
p1277
V594777
p1278
sVp_throws
p1279
VR
sa(dp1280
Vatbat_count
p1281
V22
p1282
sVhandedness
p1283
VR
sVpitches
p1284
(lp1285
(dp1286
Vpz
p1287
V1.66823902053
p1288
sVpx
p1289
V-0.739191230189
p1290
sVdes
p1291
VIn play, no out
p1292
sVsz_top
p1293
V3.6775271289541323
p1294
sVsz_bottom
p1295
V1.505990585093869
p1296
sVtype
p1297
VX
sasVbatter_height
p1298
V6-2
p1299
sVinning_count
p1300
V3
sVpitcher_id
p1301
V573186
p1302
sVisHome
p1303
I1
sVbatter_id
p1304
V545361
p1305
sVp_throws
p1306
VR
sa(dp1307
Vatbat_count
p1308
V23
p1309
sVhandedness
p1310
VR
sVpitches
p1311
(lp1312
(dp1313
Vpz
p1314
V0.839195589552
p1315
sVpx
p1316
V-0.326571843394
p1317
sVdes
p1318
VBall
p1319
sVsz_top
p1320
V3.5355878322048895
p1321
sVsz_bottom
p1322
V1.7685052457817463
p1323
sVtype
p1324
VB
sa(dp1325
Vpz
p1326
V3.44997705701
p1327
sVpx
p1328
V1.40951378601
p1329
sVdes
p1330
VBall
p1331
sVsz_top
p1332
V3.640875596366122
p1333
sVsz_bottom
p1334
V1.858795811064887
p1335
sVtype
p1336
VB
sa(dp1337
Vpz
p1338
V1.77452020718
p1339
sVpx
p1340
V0.0666532658954
p1341
sVdes
p1342
VIn play, run(s)
p1343
sVsz_top
p1344
V3.8664792588687504
p1345
sVsz_bottom
p1346
V1.6029651842781405
p1347
sVtype
p1348
VX
sasVbatter_height
p1349
V6-3
p1350
sVinning_count
p1351
V3
sVpitcher_id
p1352
V573186
p1353
sVisHome
p1354
I1
sVbatter_id
p1355
V405395
p1356
sVp_throws
p1357
VR
sa(dp1358
Vatbat_count
p1359
V24
p1360
sVhandedness
p1361
VR
sVpitches
p1362
(lp1363
(dp1364
Vpz
p1365
V2.35597993417
p1366
sVpx
p1367
V0.431111542344
p1368
sVdes
p1369
VCalled Strike
p1370
sVsz_top
p1371
V3.8664792588687504
p1372
sVsz_bottom
p1373
V1.783553870073277
p1374
sVtype
p1375
VS
sa(dp1376
Vpz
p1377
V2.21041195636
p1378
sVpx
p1379
V-0.498715295745
p1380
sVdes
p1381
VIn play, out(s)
p1382
sVsz_top
p1383
V3.867958143725808
p1384
sVsz_bottom
p1385
V1.6049298543983923
p1386
sVtype
p1387
VX
sasVbatter_height
p1388
V6-4
p1389
sVinning_count
p1390
V3
sVpitcher_id
p1391
V573186
p1392
sVisHome
p1393
I1
sVbatter_id
p1394
V543068
p1395
sVp_throws
p1396
VR
sa(dp1397
Vatbat_count
p1398
V25
p1399
sVhandedness
p1400
VL
sVpitches
p1401
(lp1402
(dp1403
Vpz
p1404
V2.24826268719
p1405
sVpx
p1406
V0.0725458929107
p1407
sVdes
p1408
VCalled Strike
p1409
sVsz_top
p1410
V3.3211021624437507
p1411
sVsz_bottom
p1412
V1.6824777389685934
p1413
sVtype
p1414
VS
sa(dp1415
Vpz
p1416
V0.684272598903
p1417
sVpx
p1418
V0.510798901658
p1419
sVdes
p1420
VBall
p1421
sVsz_top
p1422
V3.351179352743131
p1423
sVsz_bottom
p1424
V1.6975228920094523
p1425
sVtype
p1426
VB
sa(dp1427
Vpz
p1428
V3.74593119436
p1429
sVpx
p1430
V-0.843382177626
p1431
sVdes
p1432
VBall
p1433
sVsz_top
p1434
V3.4113328024339467
p1435
sVsz_bottom
p1436
V1.7125679674256276
p1437
sVtype
p1438
VB
sa(dp1439
Vpz
p1440
V1.73585307501
p1441
sVpx
p1442
V0.744137180229
p1443
sVdes
p1444
VBall
p1445
sVsz_top
p1446
V3.2399217622782146
p1447
sVsz_bottom
p1448
V1.4703804066181476
p1449
sVtype
p1450
VB
sa(dp1451
Vpz
p1452
V1.94504657899
p1453
sVpx
p1454
V-0.201693300913
p1455
sVdes
p1456
VCalled Strike
p1457
sVsz_top
p1458
V3.366217831528303
p1459
sVsz_bottom
p1460
V1.6523872000000353
p1461
sVtype
p1462
VS
sa(dp1463
Vpz
p1464
V2.42131721145
p1465
sVpx
p1466
V-1.61310139565
p1467
sVdes
p1468
VBall
p1469
sVsz_top
p1470
V3.3044417283685235
p1471
sVsz_bottom
p1472
V1.6203362244616386
p1473
sVtype
p1474
VB
sasVbatter_height
p1475
V5-11
p1476
sVinning_count
p1477
V4
sVpitcher_id
p1478
V642229
p1479
sVisHome
p1480
I0
sVbatter_id
p1481
V485567
p1482
sVp_throws
p1483
VR
sa(dp1484
Vatbat_count
p1485
V26
p1486
sVhandedness
p1487
VR
sVpitches
p1488
(lp1489
(dp1490
Vpz
p1491
V1.91808578754
p1492
sVpx
p1493
V0.0375529567446
p1494
sVdes
p1495
VSwinging Strike
p1496
sVsz_top
p1497
V3.747509379896961
p1498
sVsz_bottom
p1499
V1.5369824625437403
p1500
sVtype
p1501
VS
sa(dp1502
Vpz
p1503
V3.2905717582
p1504
sVpx
p1505
V0.113517791187
p1506
sVdes
p1507
VIn play, out(s)
p1508
sVsz_top
p1509
V3.747509379896961
p1510
sVsz_bottom
p1511
V1.5369824625437403
p1512
sVtype
p1513
VX
sasVbatter_height
p1514
V6-0
p1515
sVinning_count
p1516
V4
sVpitcher_id
p1517
V642229
p1518
sVisHome
p1519
I0
sVbatter_id
p1520
V430832
p1521
sVp_throws
p1522
VR
sa(dp1523
Vatbat_count
p1524
V27
p1525
sVhandedness
p1526
VL
sVpitches
p1527
(lp1528
(dp1529
Vpz
p1530
V3.04363403188
p1531
sVpx
p1532
V-0.639072421764
p1533
sVdes
p1534
VCalled Strike
p1535
sVsz_top
p1536
V3.747509379896961
p1537
sVsz_bottom
p1538
V1.7175752890901421
p1539
sVtype
p1540
VS
sa(dp1541
Vpz
p1542
V1.18180093476
p1543
sVpx
p1544
V-1.05751089473
p1545
sVdes
p1546
VBall
p1547
sVsz_top
p1548
V3.8828686830945216
p1549
sVsz_bottom
p1550
V1.807867452419707
p1551
sVtype
p1552
VB
sa(dp1553
Vpz
p1554
V2.36541125297
p1555
sVpx
p1556
V-0.296626967586
p1557
sVdes
p1558
VIn play, out(s)
p1559
sVsz_top
p1560
V3.747509379896961
p1561
sVsz_bottom
p1562
V1.5369824625437403
p1563
sVtype
p1564
VX
sasVbatter_height
p1565
V6-1
p1566
sVinning_count
p1567
V4
sVpitcher_id
p1568
V642229
p1569
sVisHome
p1570
I0
sVbatter_id
p1571
V434778
p1572
sVp_throws
p1573
VR
sa(dp1574
Vatbat_count
p1575
V28
p1576
sVhandedness
p1577
VR
sVpitches
p1578
(lp1579
(dp1580
Vpz
p1581
V2.60745594869
p1582
sVpx
p1583
V-1.3125370267
p1584
sVdes
p1585
VBall
p1586
sVsz_top
p1587
V3.8434850754382097
p1588
sVsz_bottom
p1589
V1.7866063712553881
p1590
sVtype
p1591
VB
sa(dp1592
Vpz
p1593
V3.7020081957
p1594
sVpx
p1595
V0.456350421865
p1596
sVdes
p1597
VBall
p1598
sVsz_top
p1599
V3.6028386161135018
p1600
sVsz_bottom
p1601
V1.7866063712553881
p1602
sVtype
p1603
VB
sa(dp1604
Vpz
p1605
V1.96793056089
p1606
sVpx
p1607
V0.510878700386
p1608
sVdes
p1609
VCalled Strike
p1610
sVsz_top
p1611
V3.8434850754382097
p1612
sVsz_bottom
p1613
V1.86184823243115
p1614
sVtype
p1615
VS
sa(dp1616
Vpz
p1617
V3.0208192475
p1618
sVpx
p1619
V1.07698202336
p1620
sVdes
p1621
VBall
p1622
sVsz_top
p1623
V3.6028386161135018
p1624
sVsz_bottom
p1625
V1.8317517240519834
p1626
sVtype
p1627
VB
sa(dp1628
Vpz
p1629
V2.45868606273
p1630
sVpx
p1631
V0.0819017444689
p1632
sVdes
p1633
VIn play, out(s)
p1634
sVsz_top
p1635
V3.8434850754382097
p1636
sVsz_bottom
p1637
V1.5909683242718557
p1638
sVtype
p1639
VX
sasVbatter_height
p1640
V6-2
p1641
sVinning_count
p1642
V4
sVpitcher_id
p1643
V573186
p1644
sVisHome
p1645
I1
sVbatter_id
p1646
V592743
p1647
sVp_throws
p1648
VR
sa(dp1649
Vatbat_count
p1650
V29
p1651
sVhandedness
p1652
VR
sVpitches
p1653
(lp1654
(dp1655
Vpz
p1656
V3.27513036601
p1657
sVpx
p1658
V-0.708177278754
p1659
sVdes
p1660
VIn play, out(s)
p1661
sVsz_top
p1662
V3.787499247822076
p1663
sVsz_bottom
p1664
V1.5669746062715006
p1665
sVtype
p1666
VX
sasVbatter_height
p1667
V6-1
p1668
sVinning_count
p1669
V4
sVpitcher_id
p1670
V573186
p1671
sVisHome
p1672
I1
sVbatter_id
p1673
V527043
p1674
sVp_throws
p1675
VR
sa(dp1676
Vatbat_count
p1677
V30
p1678
sVhandedness
p1679
VL
sVpitches
p1680
(lp1681
(dp1682
Vpz
p1683
V1.32546867178
p1684
sVpx
p1685
V-1.32935034656
p1686
sVdes
p1687
VBall
p1688
sVsz_top
p1689
V3.065485419875479
p1690
sVsz_bottom
p1691
V1.5669746062715006
p1692
sVtype
p1693
VB
sa(dp1694
Vpz
p1695
V1.4955087886
p1696
sVpx
p1697
V0.93241197662
p1698
sVdes
p1699
VFoul
p1700
sVsz_top
p1701
V3.787499247822076
p1702
sVsz_bottom
p1703
V1.5669746062715006
p1704
sVtype
p1705
VS
sa(dp1706
Vpz
p1707
V2.41747492814
p1708
sVpx
p1709
V0.715485639116
p1710
sVdes
p1711
VIn play, out(s)
p1712
sVsz_top
p1713
V3.787499247822076
p1714
sVsz_bottom
p1715
V1.5669746062715006
p1716
sVtype
p1717
VX
sasVbatter_height
p1718
V5-9
p1719
sVinning_count
p1720
V4
sVpitcher_id
p1721
V573186
p1722
sVisHome
p1723
I1
sVbatter_id
p1724
V519184
p1725
sVp_throws
p1726
VR
sa(dp1727
Vatbat_count
p1728
V31
p1729
sVhandedness
p1730
VL
sVpitches
p1731
(lp1732
(dp1733
Vpz
p1734
V1.98986078204
p1735
sVpx
p1736
V-0.624214282046
p1737
sVdes
p1738
VCalled Strike
p1739
sVsz_top
p1740
V3.684824747974311
p1741
sVsz_bottom
p1742
V1.7643997366709954
p1743
sVtype
p1744
VS
sa(dp1745
Vpz
p1746
V0.861525588043
p1747
sVpx
p1748
V0.302972311669
p1749
sVdes
p1750
VBall
p1751
sVsz_top
p1752
V3.7600267857838077
p1753
sVsz_bottom
p1754
V1.8697386043513404
p1755
sVtype
p1756
VB
sa(dp1757
Vpz
p1758
V1.41975354378
p1759
sVpx
p1760
V-1.19913150668
p1761
sVdes
p1762
VBall
p1763
sVsz_top
p1764
V3.8001746197487165
p1765
sVsz_bottom
p1766
V1.9249533678273565
p1767
sVtype
p1768
VB
sa(dp1769
Vpz
p1770
V2.41664441437
p1771
sVpx
p1772
V-0.906327626898
p1773
sVdes
p1774
VIn play, no out
p1775
sVsz_top
p1776
V3.9254643493703156
p1777
sVsz_bottom
p1778
V1.628958383258393
p1779
sVtype
p1780
VX
sasVbatter_height
p1781
V6-4
p1782
sVinning_count
p1783
V5
sVpitcher_id
p1784
V642229
p1785
sVisHome
p1786
I0
sVbatter_id
p1787
V475253
p1788
sVp_throws
p1789
VR
sa(dp1790
Vatbat_count
p1791
V32
p1792
sVhandedness
p1793
VR
sVpitches
p1794
(lp1795
(dp1796
Vpz
p1797
V3.18282663119
p1798
sVpx
p1799
V-0.637593435573
p1800
sVdes
p1801
VSwinging Strike
p1802
sVsz_top
p1803
V3.6775271289541323
p1804
sVsz_bottom
p1805
V1.505990585093869
p1806
sVtype
p1807
VS
sa(dp1808
Vpz
p1809
V0.841700225306
p1810
sVpx
p1811
V1.25613988184
p1812
sVdes
p1813
VBall In Dirt
p1814
sVsz_top
p1815
V3.527116773992695
p1816
sVsz_bottom
p1817
V1.686585356554552
p1818
sVtype
p1819
VB
sa(dp1820
Vpz
p1821
V2.30667890721
p1822
sVpx
p1823
V-0.216283922572
p1824
sVdes
p1825
VFoul
p1826
sVsz_top
p1827
V3.6775271289541323
p1828
sVsz_bottom
p1829
V1.505990585093869
p1830
sVtype
p1831
VS
sa(dp1832
Vpz
p1833
V1.69098976178
p1834
sVpx
p1835
V0.122395425507
p1836
sVdes
p1837
VSwinging Strike
p1838
sVsz_top
p1839
V3.6775271289541323
p1840
sVsz_bottom
p1841
V1.505990585093869
p1842
sVtype
p1843
VS
sasVbatter_height
p1844
V5-10
p1845
sVinning_count
p1846
V5
sVpitcher_id
p1847
V642229
p1848
sVisHome
p1849
I0
sVbatter_id
p1850
V431145
p1851
sVp_throws
p1852
VR
sa(dp1853
Vatbat_count
p1854
V33
p1855
sVhandedness
p1856
VL
sVpitches
p1857
(lp1858
(dp1859
Vpz
p1860
V2.12587671603
p1861
sVpx
p1862
V-0.766152006748
p1863
sVdes
p1864
VCalled Strike
p1865
sVsz_top
p1866
V3.62061592879396
p1867
sVsz_bottom
p1868
V1.7199328645283956
p1869
sVtype
p1870
VS
sa(dp1871
Vpz
p1872
V0.965028757593
p1873
sVpx
p1874
V-0.128132294275
p1875
sVdes
p1876
VSwinging Strike
p1877
sVsz_top
p1878
V3.6775271289541323
p1879
sVsz_bottom
p1880
V1.505990585093869
p1881
sVtype
p1882
VS
sa(dp1883
Vpz
p1884
V0.209417754261
p1885
sVpx
p1886
V-0.0688191732784
p1887
sVdes
p1888
VBall In Dirt
p1889
sVsz_top
p1890
V3.3616563002921254
p1891
sVsz_bottom
p1892
V1.6113389124706003
p1893
sVtype
p1894
VB
sa(dp1895
Vpz
p1896
V2.46810479581
p1897
sVpx
p1898
V-0.674458749868
p1899
sVdes
p1900
VFoul
p1901
sVsz_top
p1902
V3.6775271289541323
p1903
sVsz_bottom
p1904
V1.505990585093869
p1905
sVtype
p1906
VS
sa(dp1907
Vpz
p1908
V2.6155013117
p1909
sVpx
p1910
V-0.766932815281
p1911
sVdes
p1912
VFoul
p1913
sVsz_top
p1914
V3.6775271289541323
p1915
sVsz_bottom
p1916
V1.505990585093869
p1917
sVtype
p1918
VS
sa(dp1919
Vpz
p1920
V4.88882693205
p1921
sVpx
p1922
V-0.469541609692
p1923
sVdes
p1924
VBall
p1925
sVsz_top
p1926
V3.3814023701379696
p1927
sVsz_bottom
p1928
V1.5558391704179044
p1929
sVtype
p1930
VB
sa(dp1931
Vpz
p1932
V0.563052393235
p1933
sVpx
p1934
V-0.0916559714337
p1935
sVdes
p1936
VBall In Dirt
p1937
sVsz_top
p1938
V3.481898088397543
p1939
sVsz_bottom
p1940
V1.7015404820928097
p1941
sVtype
p1942
VB
sa(dp1943
Vpz
p1944
V2.24990064802
p1945
sVpx
p1946
V-0.998496697466
p1947
sVdes
p1948
VIn play, out(s)
p1949
sVsz_top
p1950
V3.6774339168705836
p1951
sVsz_bottom
p1952
V1.5058957402078477
p1953
sVtype
p1954
VX
sasVbatter_height
p1955
V6-0
p1956
sVinning_count
p1957
V5
sVpitcher_id
p1958
V642229
p1959
sVisHome
p1960
I0
sVbatter_id
p1961
V458085
p1962
sVp_throws
p1963
VR
sa(dp1964
Vatbat_count
p1965
V34
p1966
sVhandedness
p1967
VR
sVpitches
p1968
(lp1969
(dp1970
Vpz
p1971
V1.99322118278
p1972
sVpx
p1973
V1.32305196369
p1974
sVdes
p1975
VBall
p1976
sVsz_top
p1977
V3.4700828876993555
p1978
sVsz_bottom
p1979
V1.7108845750684694
p1980
sVtype
p1981
VB
sa(dp1982
Vpz
p1983
V0.769985437988
p1984
sVpx
p1985
V0.616367433947
p1986
sVdes
p1987
VBall In Dirt
p1988
sVsz_top
p1989
V3.461799189985932
p1990
sVsz_bottom
p1991
V1.7025984079335572
p1992
sVtype
p1993
VB
sa(dp1994
Vpz
p1995
V2.76089007248
p1996
sVpx
p1997
V-0.943044480017
p1998
sVdes
p1999
VBall
p2000
sVsz_top
p2001
V3.4166700436549533
p2002
sVsz_bottom
p2003
V1.7477418172951573
p2004
sVtype
p2005
VB
sa(dp2006
Vpz
p2007
V2.70621510149
p2008
sVpx
p2009
V-0.497411958519
p2010
sVdes
p2011
VCalled Strike
p2012
sVsz_top
p2013
V3.476766763714032
p2014
sVsz_bottom
p2015
V1.6573755848388316
p2016
sVtype
p2017
VS
sa(dp2018
Vpz
p2019
V2.95419216023
p2020
sVpx
p2021
V-0.814500663217
p2022
sVdes
p2023
VIn play, out(s)
p2024
sVsz_top
p2025
V3.7475063974535203
p2026
sVsz_bottom
p2027
V1.5369794505411392
p2028
sVtype
p2029
VX
sasVbatter_height
p2030
V5-9
p2031
sVinning_count
p2032
V5
sVpitcher_id
p2033
V642229
p2034
sVisHome
p2035
I0
sVbatter_id
p2036
V581527
p2037
sVp_throws
p2038
VR
sa(dp2039
Vatbat_count
p2040
V35
p2041
sVhandedness
p2042
VR
sVpitches
p2043
(lp2044
(dp2045
Vpz
p2046
V2.17932022885
p2047
sVpx
p2048
V-1.25778939493
p2049
sVdes
p2050
VBall
p2051
sVsz_top
p2052
V3.7023849486384606
p2053
sVsz_bottom
p2054
V1.8831069179297657
p2055
sVtype
p2056
VB
sa(dp2057
Vpz
p2058
V2.53822968074
p2059
sVpx
p2060
V-0.413705467759
p2061
sVdes
p2062
VIn play, out(s)
p2063
sVsz_top
p2064
V3.747506323856392
p2065
sVsz_bottom
p2066
V1.5369793756122547
p2067
sVtype
p2068
VX
sasVbatter_height
p2069
V6-0
p2070
sVinning_count
p2071
V5
sVpitcher_id
p2072
V573186
p2073
sVisHome
p2074
I1
sVbatter_id
p2075
V455117
p2076
sVp_throws
p2077
VR
sa(dp2078
Vatbat_count
p2079
V36
p2080
sVhandedness
p2081
VL
sVpitches
p2082
(lp2083
(dp2084
Vpz
p2085
V2.78823893452
p2086
sVpx
p2087
V-1.05563766687
p2088
sVdes
p2089
VBall
p2090
sVsz_top
p2091
V3.4247757784905772
p2092
sVsz_bottom
p2093
V1.7557757404690122
p2094
sVtype
p2095
VB
sa(dp2096
Vpz
p2097
V1.61421113977
p2098
sVpx
p2099
V-1.63316521146
p2100
sVdes
p2101
VBall
p2102
sVsz_top
p2103
V3.4247757784905772
p2104
sVsz_bottom
p2105
V1.650432327968069
p2106
sVtype
p2107
VB
sa(dp2108
Vpz
p2109
V2.1873544029
p2110
sVpx
p2111
V-0.357059114977
p2112
sVdes
p2113
VIn play, out(s)
p2114
sVsz_top
p2115
V3.695519504554589
p2116
sVsz_bottom
p2117
V1.5149851373374474
p2118
sVtype
p2119
VX
sasVbatter_height
p2120
V5-11
p2121
sVinning_count
p2122
V5
sVpitcher_id
p2123
V573186
p2124
sVisHome
p2125
I1
sVbatter_id
p2126
V460060
p2127
sVp_throws
p2128
VR
sa(dp2129
Vatbat_count
p2130
V37
p2131
sVhandedness
p2132
VL
sVpitches
p2133
(lp2134
(dp2135
Vpz
p2136
V0.655382519997
p2137
sVpx
p2138
V-0.368725830264
p2139
sVdes
p2140
VBall
p2141
sVsz_top
p2142
V3.256353532434048
p2143
sVsz_bottom
p2144
V1.6715337118492428
p2145
sVtype
p2146
VB
sa(dp2147
Vpz
p2148
V0.832000707798
p2149
sVpx
p2150
V1.30325176999
p2151
sVdes
p2152
VBall
p2153
sVsz_top
p2154
V3.226267564487607
p2155
sVsz_bottom
p2156
V1.6564844462730193
p2157
sVtype
p2158
VB
sa(dp2159
Vpz
p2160
V2.12696666037
p2161
sVpx
p2162
V-0.31933506992
p2163
sVdes
p2164
VIn play, out(s)
p2165
sVsz_top
p2166
V3.6775240684722093
p2167
sVsz_bottom
p2168
V1.5059874935156898
p2169
sVtype
p2170
VX
sasVbatter_height
p2171
V5-10
p2172
sVinning_count
p2173
V5
sVpitcher_id
p2174
V573186
p2175
sVisHome
p2176
I1
sVbatter_id
p2177
V594777
p2178
sVp_throws
p2179
VR
sa(dp2180
Vatbat_count
p2181
V38
p2182
sVhandedness
p2183
VL
sVpitches
p2184
(lp2185
(dp2186
Vpz
p2187
V1.8387158016
p2188
sVpx
p2189
V-0.123875249197
p2190
sVdes
p2191
VCalled Strike
p2192
sVsz_top
p2193
V3.7207751654916095
p2194
sVsz_bottom
p2195
V1.6847124876320905
p2196
sVtype
p2197
VS
sa(dp2198
Vpz
p2199
V2.6744689746
p2200
sVpx
p2201
V0.089731346782
p2202
sVdes
p2203
VFoul
p2204
sVsz_top
p2205
V3.6790477444809113
p2206
sVsz_bottom
p2207
V1.5079744600356975
p2208
sVtype
p2209
VS
sa(dp2210
Vpz
p2211
V1.76594425202
p2212
sVpx
p2213
V-1.12764856531
p2214
sVdes
p2215
VBall
p2216
sVsz_top
p2217
V3.4519045758380997
p2218
sVsz_bottom
p2219
V1.6414350250897414
p2220
sVtype
p2221
VB
sa(dp2222
Vpz
p2223
V1.26418369439
p2224
sVpx
p2225
V-0.750438780196
p2226
sVdes
p2227
VFoul
p2228
sVsz_top
p2229
V3.6775240647809966
p2230
sVsz_bottom
p2231
V1.5059874896026741
p2232
sVtype
p2233
VS
sa(dp2234
Vpz
p2235
V1.93267790797
p2236
sVpx
p2237
V-1.006551668
p2238
sVdes
p2239
VBall
p2240
sVsz_top
p2241
V3.5872783444592287
p2242
sVsz_bottom
p2243
V1.6865828143315227
p2244
sVtype
p2245
VB
sa(dp2246
Vpz
p2247
V1.88624091937
p2248
sVpx
p2249
V0.373844223625
p2250
sVdes
p2251
VFoul
p2252
sVsz_top
p2253
V3.6775239887377538
p2254
sVsz_bottom
p2255
V1.5059874120940933
p2256
sVtype
p2257
VS
sa(dp2258
Vpz
p2259
V1.42383003493
p2260
sVpx
p2261
V0.966945174941
p2262
sVdes
p2263
VSwinging Strike
p2264
sVsz_top
p2265
V3.67752391174605
p2266
sVsz_bottom
p2267
V1.5059873335694078
p2268
sVtype
p2269
VS
sasVbatter_height
p2270
V5-10
p2271
sVinning_count
p2272
V6
sVpitcher_id
p2273
V453284
p2274
sVisHome
p2275
I0
sVbatter_id
p2276
V572365
p2277
sVp_throws
p2278
VR
sa(dp2279
Vatbat_count
p2280
V39
p2281
sVhandedness
p2282
VR
sVpitches
p2283
(lp2284
(dp2285
Vpz
p2286
V3.61302525514
p2287
sVpx
p2288
V0.525900920586
p2289
sVdes
p2290
VBall
p2291
sVsz_top
p2292
V3.1745824913610647
p2293
sVsz_bottom
p2294
V1.675932274333725
p2295
sVtype
p2296
VB
sa(dp2297
Vpz
p2298
V1.78796525065
p2299
sVpx
p2300
V0.562435504324
p2301
sVdes
p2302
VCalled Strike
p2303
sVsz_top
p2304
V3.5136369442448085
p2305
sVsz_bottom
p2306
V1.7035674699503929
p2307
sVtype
p2308
VS
sa(dp2309
Vpz
p2310
V1.616594015
p2311
sVpx
p2312
V0.420239839719
p2313
sVdes
p2314
VFoul
p2315
sVsz_top
p2316
V3.677523908261584
p2317
sVsz_bottom
p2318
V1.5059873298702513
p2319
sVtype
p2320
VS
sa(dp2321
Vpz
p2322
V2.03188720393
p2323
sVpx
p2324
V-0.244008456541
p2325
sVdes
p2326
VFoul
p2327
sVsz_top
p2328
V3.6775239058716807
p2329
sVsz_bottom
p2330
V1.505987327319339
p2331
sVtype
p2332
VS
sa(dp2333
Vpz
p2334
V3.48992485858
p2335
sVpx
p2336
V-0.162440841201
p2337
sVdes
p2338
VFoul
p2339
sVsz_top
p2340
V3.6775239034788
p2341
sVsz_bottom
p2342
V1.5059873247645186
p2343
sVtype
p2344
VS
sa(dp2345
Vpz
p2346
V0.837507074438
p2347
sVpx
p2348
V1.52381031681
p2349
sVdes
p2350
VBall
p2351
sVsz_top
p2352
V3.3181397369312364
p2353
sVsz_bottom
p2354
V1.643386289620409
p2355
sVtype
p2356
VB
sa(dp2357
Vpz
p2358
V1.53785142924
p2359
sVpx
p2360
V-0.552365790522
p2361
sVdes
p2362
VSwinging Strike
p2363
sVsz_top
p2364
V3.6775239010896073
p2365
sVsz_bottom
p2366
V1.5059873222113964
p2367
sVtype
p2368
VS
sasVbatter_height
p2369
V6-0
p2370
sVinning_count
p2371
V6
sVpitcher_id
p2372
V453284
p2373
sVisHome
p2374
I0
sVbatter_id
p2375
V607680
p2376
sVp_throws
p2377
VR
sa(dp2378
Vatbat_count
p2379
V40
p2380
sVhandedness
p2381
VL
sVpitches
p2382
(lp2383
(dp2384
Vpz
p2385
V1.81811243316
p2386
sVpx
p2387
V-0.156719805634
p2388
sVdes
p2389
VCalled Strike
p2390
sVsz_top
p2391
V3.3564307493611807
p2392
sVsz_bottom
p2393
V1.732621612346712
p2394
sVtype
p2395
VS
sa(dp2396
Vpz
p2397
V2.43963091953
p2398
sVpx
p2399
V-0.202987915075
p2400
sVdes
p2401
VCalled Strike
p2402
sVsz_top
p2403
V3.386515429456118
p2404
sVsz_bottom
p2405
V1.702523716196886
p2406
sVtype
p2407
VS
sa(dp2408
Vpz
p2409
V2.70585513686
p2410
sVpx
p2411
V-0.9587368723
p2412
sVdes
p2413
VBall
p2414
sVsz_top
p2415
V3.371473162353354
p2416
sVsz_bottom
p2417
V1.672425430921173
p2418
sVtype
p2419
VB
sa(dp2420
Vpz
p2421
V1.18273454882
p2422
sVpx
p2423
V-0.404624985099
p2424
sVdes
p2425
VBall
p2426
sVsz_top
p2427
V3.3865154245273317
p2428
sVsz_bottom
p2429
V1.7777680411418189
p2430
sVtype
p2431
VB
sa(dp2432
Vpz
p2433
V0.934473405857
p2434
sVpx
p2435
V0.408378313481
p2436
sVdes
p2437
VBall
p2438
sVsz_top
p2439
V3.341388392094693
p2440
sVsz_bottom
p2441
V1.6874746058626613
p2442
sVtype
p2443
VB
sa(dp2444
Vpz
p2445
V1.9142172098
p2446
sVpx
p2447
V0.349212840994
p2448
sVdes
p2449
VCalled Strike
p2450
sVsz_top
p2451
V3.4165997162408885
p2452
sVsz_bottom
p2453
V1.7627193288923664
p2454
sVtype
p2455
VS
sasVbatter_height
p2456
V5-11
p2457
sVinning_count
p2458
V6
sVpitcher_id
p2459
V453284
p2460
sVisHome
p2461
I0
sVbatter_id
p2462
V485567
p2463
sVp_throws
p2464
VR
sa(dp2465
Vatbat_count
p2466
V41
p2467
sVhandedness
p2468
VR
sVpitches
p2469
(lp2470
(dp2471
Vpz
p2472
V3.44746706519
p2473
sVpx
p2474
V-0.162261593717
p2475
sVdes
p2476
VCalled Strike
p2477
sVsz_top
p2478
V3.873561430322212
p2479
sVsz_bottom
p2480
V1.7565064667697925
p2481
sVtype
p2482
VS
sa(dp2483
Vpz
p2484
V2.85579560172
p2485
sVpx
p2486
V1.16561699599
p2487
sVdes
p2488
VBall
p2489
sVsz_top
p2490
V3.8434819086611824
p2491
sVsz_bottom
p2492
V1.8467977196230265
p2493
sVtype
p2494
VB
sa(dp2495
Vpz
p2496
V2.5513135817
p2497
sVpx
p2498
V0.594751230804
p2499
sVdes
p2500
VSwinging Strike
p2501
sVsz_top
p2502
V3.8434819065452004
p2503
sVsz_bottom
p2504
V1.5909651207247961
p2505
sVtype
p2506
VS
sa(dp2507
Vpz
p2508
V3.28398905644
p2509
sVpx
p2510
V0.771449482103
p2511
sVdes
p2512
VSwinging Strike
p2513
sVsz_top
p2514
V3.8434819050060227
p2515
sVsz_bottom
p2516
V1.5909651191418988
p2517
sVtype
p2518
VS
sasVbatter_height
p2519
V6-2
p2520
sVinning_count
p2521
V6
sVpitcher_id
p2522
V573186
p2523
sVisHome
p2524
I1
sVbatter_id
p2525
V545361
p2526
sVp_throws
p2527
VR
sa(dp2528
Vatbat_count
p2529
V42
p2530
sVhandedness
p2531
VR
sVpitches
p2532
(lp2533
(dp2534
Vpz
p2535
V1.60010356464
p2536
sVpx
p2537
V-0.408406717121
p2538
sVdes
p2539
VFoul
p2540
sVsz_top
p2541
V3.8434819046150253
p2542
sVsz_bottom
p2543
V1.5909651187291871
p2544
sVtype
p2545
VS
sa(dp2546
Vpz
p2547
V1.45844231325
p2548
sVpx
p2549
V0.4897742794
p2550
sVdes
p2551
VFoul
p2552
sVsz_top
p2553
V3.843481902498219
p2554
sVsz_bottom
p2555
V1.590965116559083
p2556
sVtype
p2557
VS
sa(dp2558
Vpz
p2559
V2.30324449575
p2560
sVpx
p2561
V1.54766718015
p2562
sVdes
p2563
VSwinging Strike
p2564
sVsz_top
p2565
V3.843481900955652
p2566
sVsz_bottom
p2567
V1.5909651149708637
p2568
sVtype
p2569
VS
sasVbatter_height
p2570
V6-3
p2571
sVinning_count
p2572
V6
sVpitcher_id
p2573
V573186
p2574
sVisHome
p2575
I1
sVbatter_id
p2576
V405395
p2577
sVp_throws
p2578
VR
sa(dp2579
Vatbat_count
p2580
V43
p2581
sVhandedness
p2582
VR
sVpitches
p2583
(lp2584
(dp2585
Vpz
p2586
V2.5476862125
p2587
sVpx
p2588
V-0.362504735092
p2589
sVdes
p2590
VCalled Strike
p2591
sVsz_top
p2592
V3.8664760843350905
p2593
sVsz_bottom
p2594
V1.813648338307729
p2595
sVtype
p2596
VS
sa(dp2597
Vpz
p2598
V2.80863720135
p2599
sVpx
p2600
V0.868147138059
p2601
sVdes
p2602
VCalled Strike
p2603
sVsz_top
p2604
V3.7311154889688325
p2605
sVsz_bottom
p2606
V1.7835512283666404
p2607
sVtype
p2608
VS
sa(dp2609
Vpz
p2610
V3.97929513128
p2611
sVpx
p2612
V0.559558964838
p2613
sVdes
p2614
VSwinging Strike
p2615
sVsz_top
p2616
V3.866476082499041
p2617
sVsz_bottom
p2618
V1.6029619730330609
p2619
sVtype
p2620
VS
sasVbatter_height
p2621
V6-4
p2622
sVinning_count
p2623
V6
sVpitcher_id
p2624
V573186
p2625
sVisHome
p2626
I1
sVbatter_id
p2627
V543068
p2628
sVp_throws
p2629
VR
sa(dp2630
Vatbat_count
p2631
V44
p2632
sVhandedness
p2633
VR
sVpitches
p2634
(lp2635
(dp2636
Vpz
p2637
V2.34219813157
p2638
sVpx
p2639
V1.30234031944
p2640
sVdes
p2641
VBall
p2642
sVsz_top
p2643
V3.642352428846337
p2644
sVsz_bottom
p2645
V1.7779002039991525
p2646
sVtype
p2647
VB
sa(dp2648
Vpz
p2649
V1.70593198213
p2650
sVpx
p2651
V0.671432405548
p2652
sVdes
p2653
VCalled Strike
p2654
sVsz_top
p2655
V3.4466838142965344
p2656
sVsz_bottom
p2657
V1.5971783030808169
p2658
sVtype
p2659
VS
sa(dp2660
Vpz
p2661
V2.86746854624
p2662
sVpx
p2663
V0.858517760283
p2664
sVdes
p2665
VFoul
p2666
sVsz_top
p2667
V3.74750619960637
p2668
sVsz_bottom
p2669
V1.5369792471654264
p2670
sVtype
p2671
VS
sa(dp2672
Vpz
p2673
V0.394551742566
p2674
sVpx
p2675
V-0.361298953892
p2676
sVdes
p2677
VBall
p2678
sVsz_top
p2679
V3.749012015100014
p2680
sVsz_bottom
p2681
V1.6743686451458402
p2682
sVtype
p2683
VB
sa(dp2684
Vpz
p2685
V0.512010193277
p2686
sVpx
p2687
V1.22557790682
p2688
sVdes
p2689
VBall
p2690
sVsz_top
p2691
V3.8377467861963126
p2692
sVsz_bottom
p2693
V1.8530102482123212
p2694
sVtype
p2695
VB
sa(dp2696
Vpz
p2697
V1.59628846902
p2698
sVpx
p2699
V0.21742332081
p2700
sVdes
p2701
VSwinging Strike
p2702
sVsz_top
p2703
V3.811055300333429
p2704
sVsz_bottom
p2705
V1.9325037103628233
p2706
sVtype
p2707
VS
sasVbatter_height
p2708
V6-0
p2709
sVinning_count
p2710
V7
sVpitcher_id
p2711
V501625
p2712
sVisHome
p2713
I0
sVbatter_id
p2714
V430832
p2715
sVp_throws
p2716
VL
sa(dp2717
Vatbat_count
p2718
V45
p2719
sVhandedness
p2720
VR
sVpitches
p2721
(lp2722
(dp2723
Vpz
p2724
V0.988884181962
p2725
sVpx
p2726
V0.880145278049
p2727
sVdes
p2728
VBall
p2729
sVsz_top
p2730
V3.8679572785620806
p2731
sVsz_bottom
p2732
V1.9735268108588073
p2733
sVtype
p2734
VB
sa(dp2735
Vpz
p2736
V3.27620342842
p2737
sVpx
p2738
V0.783164291081
p2739
sVdes
p2740
VFoul
p2741
sVsz_top
p2742
V3.7476373547096102
p2743
sVsz_bottom
p2744
V1.5371128084775378
p2745
sVtype
p2746
VS
sa(dp2747
Vpz
p2748
V2.61436849594
p2749
sVpx
p2750
V-0.48892550886
p2751
sVdes
p2752
VIn play, out(s)
p2753
sVsz_top
p2754
V3.7476373526013944
p2755
sVsz_bottom
p2756
V1.537112806232848
p2757
sVtype
p2758
VX
sasVbatter_height
p2759
V6-1
p2760
sVinning_count
p2761
V7
sVpitcher_id
p2762
V501625
p2763
sVisHome
p2764
I0
sVbatter_id
p2765
V434778
p2766
sVp_throws
p2767
VL
sa(dp2768
Vatbat_count
p2769
V46
p2770
sVhandedness
p2771
VR
sVpitches
p2772
(lp2773
(dp2774
Vpz
p2775
V3.14182629885
p2776
sVpx
p2777
V0.628971797506
p2778
sVdes
p2779
VCalled Strike
p2780
sVsz_top
p2781
V3.91055259389379
p2782
sVsz_bottom
p2783
V1.930061226160852
p2784
sVtype
p2785
VS
sa(dp2786
Vpz
p2787
V1.93050904201
p2788
sVpx
p2789
V0.65377101376
p2790
sVdes
p2791
VIn play, out(s)
p2792
sVsz_top
p2793
V3.9255920181171717
p2794
sVsz_bottom
p2795
V1.6290885318275983
p2796
sVtype
p2797
VX
sasVbatter_height
p2798
V6-4
p2799
sVinning_count
p2800
V7
sVpitcher_id
p2801
V501625
p2802
sVisHome
p2803
I0
sVbatter_id
p2804
V475253
p2805
sVp_throws
p2806
VL
sa(dp2807
Vatbat_count
p2808
V47
p2809
sVhandedness
p2810
VR
sVpitches
p2811
(lp2812
(dp2813
Vpz
p2814
V2.98687020851
p2815
sVpx
p2816
V-0.211229012103
p2817
sVdes
p2818
VIn play, out(s)
p2819
sVsz_top
p2820
V3.843612774517112
p2821
sVsz_bottom
p2822
V1.5910984452833787
p2823
sVtype
p2824
VX
sasVbatter_height
p2825
V6-2
p2826
sVinning_count
p2827
V7
sVpitcher_id
p2828
V573186
p2829
sVisHome
p2830
I1
sVbatter_id
p2831
V592743
p2832
sVp_throws
p2833
VR
sa(dp2834
Vatbat_count
p2835
V48
p2836
sVhandedness
p2837
VR
sVpitches
p2838
(lp2839
(dp2840
Vpz
p2841
V1.02027620207
p2842
sVpx
p2843
V1.40444610119
p2844
sVdes
p2845
VBall
p2846
sVsz_top
p2847
V3.51689239573831
p2848
sVsz_bottom
p2849
V1.7476960311756429
p2850
sVtype
p2851
VB
sa(dp2852
Vpz
p2853
V1.9779469765
p2854
sVpx
p2855
V-0.875969840398
p2856
sVdes
p2857
VSwinging Strike
p2858
sVsz_top
p2859
V3.787627017182615
p2860
sVsz_bottom
p2861
V1.5671047564139187
p2862
sVtype
p2863
VS
sa(dp2864
Vpz
p2865
V2.6164380085
p2866
sVpx
p2867
V0.467409382629
p2868
sVdes
p2869
VCalled Strike
p2870
sVsz_top
p2871
V3.6221811044103163
p2872
sVsz_bottom
p2873
V1.7928420788924413
p2874
sVtype
p2875
VS
sa(dp2876
Vpz
p2877
V2.87639977151
p2878
sVpx
p2879
V1.09224586102
p2880
sVdes
p2881
VFoul
p2882
sVsz_top
p2883
V3.787627015395593
p2884
sVsz_bottom
p2885
V1.5671047545309236
p2886
sVtype
p2887
VS
sa(dp2888
Vpz
p2889
V0.693341197776
p2890
sVpx
p2891
V0.703820655975
p2892
sVdes
p2893
VBall
p2894
sVsz_top
p2895
V3.682344351681728
p2896
sVsz_bottom
p2897
V1.7627447888066001
p2898
sVtype
p2899
VB
sa(dp2900
Vpz
p2901
V1.39840342318
p2902
sVpx
p2903
V-0.283202336188
p2904
sVdes
p2905
VBall
p2906
sVsz_top
p2907
V3.6221811004362863
p2908
sVsz_bottom
p2909
V1.7777934698049407
p2910
sVtype
p2911
VB
sa(dp2912
Vpz
p2913
V2.0309324441
p2914
sVpx
p2915
V0.663942392688
p2916
sVdes
p2917
VIn play, out(s)
p2918
sVsz_top
p2919
V3.7876270135121786
p2920
sVsz_bottom
p2921
V1.5671047525243509
p2922
sVtype
p2923
VX
sasVbatter_height
p2924
V6-1
p2925
sVinning_count
p2926
V7
sVpitcher_id
p2927
V573186
p2928
sVisHome
p2929
I1
sVbatter_id
p2930
V527043
p2931
sVp_throws
p2932
VR
sa(dp2933
Vatbat_count
p2934
V49
p2935
sVhandedness
p2936
VL
sVpitches
p2937
(lp2938
(dp2939
Vpz
p2940
V2.99332452278
p2941
sVpx
p2942
V-0.703375715196
p2943
sVdes
p2944
VCalled Strike
p2945
sVsz_top
p2946
V3.1953577106854993
p2947
sVsz_bottom
p2948
V1.4891252860590214
p2949
sVtype
p2950
VS
sa(dp2951
Vpz
p2952
V4.21815312933
p2953
sVpx
p2954
V1.33689382968
p2955
sVdes
p2956
VBall
p2957
sVsz_top
p2958
V3.135184288318243
p2959
sVsz_bottom
p2960
V1.4891252860590214
p2961
sVtype
p2962
VB
sa(dp2963
Vpz
p2964
V1.45450280359
p2965
sVpx
p2966
V-0.29050760386
p2967
sVdes
p2968
VIn play, out(s)
p2969
sVsz_top
p2970
V3.6616591147587414
p2971
sVsz_bottom
p2972
V1.4891252860590214
p2973
sVtype
p2974
VX
sasVbatter_height
p2975
V5-9
p2976
sVinning_count
p2977
V7
sVpitcher_id
p2978
V573186
p2979
sVisHome
p2980
I1
sVbatter_id
p2981
V519184
p2982
sVp_throws
p2983
VR
sa(dp2984
Vatbat_count
p2985
V50
p2986
sVhandedness
p2987
VR
sVpitches
p2988
(lp2989
(dp2990
Vpz
p2991
V1.44174443672
p2992
sVpx
p2993
V1.41738991816
p2994
sVdes
p2995
VBall
p2996
sVsz_top
p2997
V3.6024506538911254
p2998
sVsz_bottom
p2999
V1.7318629104375987
p3000
sVtype
p3001
VB
sa(dp3002
Vpz
p3003
V0.94101766856
p3004
sVpx
p3005
V1.08813885037
p3006
sVdes
p3007
VBall
p3008
sVsz_top
p3009
V3.4971612225861293
p3010
sVsz_bottom
p3011
V1.7168139872356107
p3012
sVtype
p3013
VB
sa(dp3014
Vpz
p3015
V0.979847950242
p3016
sVpx
p3017
V1.0997694357
p3018
sVdes
p3019
VBall
p3020
sVsz_top
p3021
V3.6325326415918227
p3022
sVsz_bottom
p3023
V1.7770092083871063
p3024
sVtype
p3025
VB
sa(dp3026
Vpz
p3027
V2.66872854568
p3028
sVpx
p3029
V0.863569274189
p3030
sVdes
p3031
VBall
p3032
sVsz_top
p3033
V3.512202805571931
p3034
sVsz_bottom
p3035
V1.7920578171500594
p3036
sVtype
p3037
VB
sasVbatter_height
p3038
V5-10
p3039
sVinning_count
p3040
V8
sVpitcher_id
p3041
V500610
p3042
sVisHome
p3043
I0
sVbatter_id
p3044
V431145
p3045
sVp_throws
p3046
VR
sa(dp3047
Vatbat_count
p3048
V51
p3049
sVhandedness
p3050
VL
sVpitches
p3051
(lp3052
(dp3053
Vpz
p3054
V2.39629428361
p3055
sVpx
p3056
V-0.921874117053
p3057
sVdes
p3058
VIn play, out(s)
p3059
sVsz_top
p3060
V3.677655034031133
p3061
sVsz_bottom
p3062
V1.506120807887136
p3063
sVtype
p3064
VX
sasVbatter_height
p3065
V6-0
p3066
sVinning_count
p3067
V8
sVpitcher_id
p3068
V500610
p3069
sVisHome
p3070
I0
sVbatter_id
p3071
V458085
p3072
sVp_throws
p3073
VR
sa(dp3074
Vatbat_count
p3075
V52
p3076
sVhandedness
p3077
VR
sVpitches
p3078
(lp3079
(dp3080
Vpz
p3081
V3.70185292863
p3082
sVpx
p3083
V-0.195847480779
p3084
sVdes
p3085
VBall
p3086
sVsz_top
p3087
V3.4209968491721483
p3088
sVsz_bottom
p3089
V1.6998197083052773
p3090
sVtype
p3091
VB
sa(dp3092
Vpz
p3093
V2.32124398945
p3094
sVpx
p3095
V-1.03787650983
p3096
sVdes
p3097
VFoul
p3098
sVsz_top
p3099
V3.6616591147587414
p3100
sVsz_bottom
p3101
V1.4891252860590214
p3102
sVtype
p3103
VS
sa(dp3104
Vpz
p3105
V3.11812837033
p3106
sVpx
p3107
V-0.0980333281384
p3108
sVdes
p3109
VIn play, run(s)
p3110
sVsz_top
p3111
V3.6616591147587414
p3112
sVsz_bottom
p3113
V1.4891252860590214
p3114
sVtype
p3115
VX
sasVbatter_height
p3116
V5-9
p3117
sVinning_count
p3118
V8
sVpitcher_id
p3119
V500610
p3120
sVisHome
p3121
I0
sVbatter_id
p3122
V581527
p3123
sVp_throws
p3124
VR
sa(dp3125
Vatbat_count
p3126
V53
p3127
sVhandedness
p3128
VL
sVpitches
p3129
(lp3130
(dp3131
Vpz
p3132
V2.7646259768
p3133
sVpx
p3134
V-1.06755945384
p3135
sVdes
p3136
VBall
p3137
sVsz_top
p3138
V3.226399295485926
p3139
sVsz_bottom
p3140
V1.506120807887136
p3141
sVtype
p3142
VB
sa(dp3143
Vpz
p3144
V2.05384179156
p3145
sVpx
p3146
V-0.684180584
p3147
sVdes
p3148
VCalled Strike
p3149
sVsz_top
p3150
V3.587409542216804
p3151
sVsz_bottom
p3152
V1.7920578171500594
p3153
sVtype
p3154
VS
sa(dp3155
Vpz
p3156
V1.87807117301
p3157
sVpx
p3158
V-0.424389180525
p3159
sVdes
p3160
VCalled Strike
p3161
sVsz_top
p3162
V3.64757351761871
p3163
sVsz_bottom
p3164
V1.7318629104375987
p3165
sVtype
p3166
VS
sa(dp3167
Vpz
p3168
V2.6980672595
p3169
sVpx
p3170
V-1.2773821825
p3171
sVdes
p3172
VBall
p3173
sVsz_top
p3174
V3.301613495118005
p3175
sVsz_bottom
p3176
V1.5813701408070173
p3177
sVtype
p3178
VB
sa(dp3179
Vpz
p3180
V1.98399672619
p3181
sVpx
p3182
V-0.674369234568
p3183
sVdes
p3184
VFoul
p3185
sVsz_top
p3186
V3.677655034031133
p3187
sVsz_bottom
p3188
V1.506120807887136
p3189
sVtype
p3190
VS
sa(dp3191
Vpz
p3192
V2.62325184182
p3193
sVpx
p3194
V-1.11180029354
p3195
sVdes
p3196
VFoul
p3197
sVsz_top
p3198
V3.677655034031133
p3199
sVsz_bottom
p3200
V1.506120807887136
p3201
sVtype
p3202
VS
sa(dp3203
Vpz
p3204
V1.71565691265
p3205
sVpx
p3206
V0.517273232193
p3207
sVdes
p3208
VIn play, out(s)
p3209
sVsz_top
p3210
V3.677655034031133
p3211
sVsz_bottom
p3212
V1.506120807887136
p3213
sVtype
p3214
VX
sasVbatter_height
p3215
V5-10
p3216
sVinning_count
p3217
V8
sVpitcher_id
p3218
V500610
p3219
sVisHome
p3220
I0
sVbatter_id
p3221
V572365
p3222
sVp_throws
p3223
VR
sa(dp3224
Vatbat_count
p3225
V54
p3226
sVhandedness
p3227
VR
sVpitches
p3228
(lp3229
(dp3230
Vpz
p3231
V2.88718974976
p3232
sVpx
p3233
V1.36454254074
p3234
sVdes
p3235
VBall
p3236
sVsz_top
p3237
V3.296392421556007
p3238
sVsz_bottom
p3239
V1.6876077267661316
p3240
sVtype
p3241
VB
sa(dp3242
Vpz
p3243
V2.592747752
p3244
sVpx
p3245
V1.48369380356
p3246
sVdes
p3247
VBall
p3248
sVsz_top
p3249
V3.491940503486383
p3250
sVsz_bottom
p3251
V1.8531432366574307
p3252
sVtype
p3253
VB
sa(dp3254
Vpz
p3255
V2.28439879689
p3256
sVpx
p3257
V-0.477072151778
p3258
sVdes
p3259
VIn play, run(s)
p3260
sVsz_top
p3261
V3.747637194879168
p3262
sVsz_bottom
p3263
V1.537112645272103
p3264
sVtype
p3265
VX
sasVbatter_height
p3266
V6-0
p3267
sVinning_count
p3268
V8
sVpitcher_id
p3269
V572044
p3270
sVisHome
p3271
I0
sVbatter_id
p3272
V607680
p3273
sVp_throws
p3274
VR
sa(dp3275
Vatbat_count
p3276
V55
p3277
sVhandedness
p3278
VL
sVpitches
p3279
(lp3280
(dp3281
Vpz
p3282
V3.55254756978
p3283
sVpx
p3284
V-0.61459290159
p3285
sVdes
p3286
VBall
p3287
sVsz_top
p3288
V3.394823020991474
p3289
sVsz_bottom
p3290
V1.7258109589796717
p3291
sVtype
p3292
VB
sa(dp3293
Vpz
p3294
V3.36390587657
p3295
sVpx
p3296
V0.0310161144639
p3297
sVdes
p3298
VFoul Tip
p3299
sVsz_top
p3300
V3.69565044463922
p3301
sVsz_bottom
p3302
V1.5151184376341007
p3303
sVtype
p3304
VS
sa(dp3305
Vpz
p3306
V1.71984426224
p3307
sVpx
p3308
V-0.824413511593
p3309
sVdes
p3310
VBall
p3311
sVsz_top
p3312
V3.4399491376526115
p3313
sVsz_bottom
p3314
V1.7860059921436005
p3315
sVtype
p3316
VB
sa(dp3317
Vpz
p3318
V2.21691636843
p3319
sVpx
p3320
V0.253448256809
p3321
sVdes
p3322
VIn play, no out
p3323
sVsz_top
p3324
V3.69565044463922
p3325
sVsz_bottom
p3326
V1.5151184376341007
p3327
sVtype
p3328
VX
sasVbatter_height
p3329
V5-11
p3330
sVinning_count
p3331
V8
sVpitcher_id
p3332
V572044
p3333
sVisHome
p3334
I0
sVbatter_id
p3335
V485567
p3336
sVp_throws
p3337
VR
sa(dp3338
Vatbat_count
p3339
V56
p3340
sVhandedness
p3341
VR
sVpitches
p3342
(lp3343
(dp3344
Vpz
p3345
V1.85810743631
p3346
sVpx
p3347
V1.35951682223
p3348
sVdes
p3349
VBall
p3350
sVsz_top
p3351
V3.747637194879168
p3352
sVsz_bottom
p3353
V1.8380949469830412
p3354
sVtype
p3355
VB
sa(dp3356
Vpz
p3357
V2.35679687
p3358
sVpx
p3359
V1.1008192277
p3360
sVdes
p3361
VBall
p3362
sVsz_top
p3363
V3.747637194879168
p3364
sVsz_bottom
p3365
V1.8380949469830412
p3366
sVtype
p3367
VB
sa(dp3368
Vpz
p3369
V1.31302474067
p3370
sVpx
p3371
V0.932928562311
p3372
sVdes
p3373
VBall
p3374
sVsz_top
p3375
V3.747637194879168
p3376
sVsz_bottom
p3377
V1.9283835059553027
p3378
sVtype
p3379
VB
sa(dp3380
Vpz
p3381
V1.65313684164
p3382
sVpx
p3383
V1.25620080558
p3384
sVdes
p3385
VSwinging Strike
p3386
sVsz_top
p3387
V3.747637194879168
p3388
sVsz_bottom
p3389
V1.537112645272103
p3390
sVtype
p3391
VS
sa(dp3392
Vpz
p3393
V2.26084397396
p3394
sVpx
p3395
V1.17149153066
p3396
sVdes
p3397
VBall
p3398
sVsz_top
p3399
V3.6724346420952685
p3400
sVsz_bottom
p3401
V1.8079981318120417
p3402
sVtype
p3403
VB
sasVbatter_height
p3404
V6-0
p3405
sVinning_count
p3406
V8
sVpitcher_id
p3407
V572044
p3408
sVisHome
p3409
I0
sVbatter_id
p3410
V430832
p3411
sVp_throws
p3412
VR
sa(dp3413
Vatbat_count
p3414
V57
p3415
sVhandedness
p3416
VL
sVpitches
p3417
(lp3418
(dp3419
Vpz
p3420
V2.75285179399
p3421
sVpx
p3422
V-1.06836302307
p3423
sVdes
p3424
VBall
p3425
sVsz_top
p3426
V3.747637194879168
p3427
sVsz_bottom
p3428
V1.8230465787002714
p3429
sVtype
p3430
VB
sa(dp3431
Vpz
p3432
V1.94234480893
p3433
sVpx
p3434
V-0.429823451476
p3435
sVdes
p3436
VCalled Strike
p3437
sVsz_top
p3438
V3.747637194879168
p3439
sVsz_bottom
p3440
V1.7929496063152968
p3441
sVtype
p3442
VS
sa(dp3443
Vpz
p3444
V1.96255288404
p3445
sVpx
p3446
V-0.559175496514
p3447
sVdes
p3448
VIn play, run(s)
p3449
sVsz_top
p3450
V3.747637194879168
p3451
sVsz_bottom
p3452
V1.537112645272103
p3453
sVtype
p3454
VX
sasVbatter_height
p3455
V6-1
p3456
sVinning_count
p3457
V8
sVpitcher_id
p3458
V572044
p3459
sVisHome
p3460
I0
sVbatter_id
p3461
V434778
p3462
sVp_throws
p3463
VR
sa(dp3464
Vatbat_count
p3465
V58
p3466
sVhandedness
p3467
VL
sVpitches
p3468
(lp3469
(dp3470
Vpz
p3471
V1.64259287188
p3472
sVpx
p3473
V-1.08359939944
p3474
sVdes
p3475
VBall
p3476
sVsz_top
p3477
V3.8203143169101708
p3478
sVsz_bottom
p3479
V1.8096758361965826
p3480
sVtype
p3481
VB
sa(dp3482
Vpz
p3483
V2.68971767284
p3484
sVpx
p3485
V-0.319358059959
p3486
sVdes
p3487
VCalled Strike
p3488
sVsz_top
p3489
V3.7150328499948344
p3490
sVsz_bottom
p3491
V1.85482091475113
p3492
sVtype
p3493
VS
sa(dp3494
Vpz
p3495
V1.62324004241
p3496
sVpx
p3497
V1.31489316559
p3498
sVdes
p3499
VBall
p3500
sVsz_top
p3501
V3.925591935321137
p3502
sVsz_bottom
p3503
V1.93006114023229
p3504
sVtype
p3505
VB
sa(dp3506
Vpz
p3507
V1.51695449459
p3508
sVpx
p3509
V-0.795047227255
p3510
sVdes
p3511
VIn play, out(s)
p3512
sVsz_top
p3513
V3.925591935321137
p3514
sVsz_bottom
p3515
V1.6290884471110445
p3516
sVtype
p3517
VX
sasVbatter_height
p3518
V6-4
p3519
sVinning_count
p3520
V8
sVpitcher_id
p3521
V572044
p3522
sVisHome
p3523
I0
sVbatter_id
p3524
V475253
p3525
sVp_throws
p3526
VR
sa(dp3527
Vatbat_count
p3528
V59
p3529
sVhandedness
p3530
VR
sVpitches
p3531
(lp3532
(dp3533
Vpz
p3534
V1.97342519917
p3535
sVpx
p3536
V-0.713728928715
p3537
sVdes
p3538
VBall
p3539
sVsz_top
p3540
V3.292236355165933
p3541
sVsz_bottom
p3542
V1.4086716942708648
p3543
sVtype
p3544
VB
sa(dp3545
Vpz
p3546
V2.71052331571
p3547
sVpx
p3548
V0.028226295084
p3549
sVdes
p3550
VCalled Strike
p3551
sVsz_top
p3552
V3.5688305890577965
p3553
sVsz_bottom
p3554
V1.7047253796838362
p3555
sVtype
p3556
VS
sa(dp3557
Vpz
p3558
V1.56230929728
p3559
sVpx
p3560
V-0.582822638721
p3561
sVdes
p3562
VFoul
p3563
sVsz_top
p3564
V3.747637194879168
p3565
sVsz_bottom
p3566
V1.537112645272103
p3567
sVtype
p3568
VS
sa(dp3569
Vpz
p3570
V3.24237488154
p3571
sVpx
p3572
V0.183392632609
p3573
sVdes
p3574
VFoul
p3575
sVsz_top
p3576
V3.747637194879168
p3577
sVsz_bottom
p3578
V1.537112645272103
p3579
sVtype
p3580
VS
sa(dp3581
Vpz
p3582
V2.0461580734
p3583
sVpx
p3584
V1.1882757502
p3585
sVdes
p3586
VBall
p3587
sVsz_top
p3588
V3.704164172744221
p3589
sVsz_bottom
p3590
V1.7949945045205453
p3591
sVtype
p3592
VB
sa(dp3593
Vpz
p3594
V1.18415951508
p3595
sVpx
p3596
V0.736228619901
p3597
sVdes
p3598
VBall
p3599
sVsz_top
p3600
V3.6740905853516566
p3601
sVsz_bottom
p3602
V1.8702166430666338
p3603
sVtype
p3604
VB
sa(dp3605
Vpz
p3606
V1.33079025131
p3607
sVpx
p3608
V-0.288213625394
p3609
sVdes
p3610
VCalled Strike
p3611
sVsz_top
p3612
V3.7025158988452915
p3613
sVsz_bottom
p3614
V1.8230465787002714
p3615
sVtype
p3616
VS
sasVbatter_height
p3617
V6-0
p3618
sVinning_count
p3619
V8
sVpitcher_id
p3620
V573186
p3621
sVisHome
p3622
I1
sVbatter_id
p3623
V455117
p3624
sVp_throws
p3625
VR
sa(dp3626
Vatbat_count
p3627
V60
p3628
sVhandedness
p3629
VL
sVpitches
p3630
(lp3631
(dp3632
Vpz
p3633
V1.82707328169
p3634
sVpx
p3635
V0.24136381309
p3636
sVdes
p3637
VIn play, out(s)
p3638
sVsz_top
p3639
V3.69565044463922
p3640
sVsz_bottom
p3641
V1.5151184376341007
p3642
sVtype
p3643
VX
sasVbatter_height
p3644
V5-11
p3645
sVinning_count
p3646
V8
sVpitcher_id
p3647
V573186
p3648
sVisHome
p3649
I1
sVbatter_id
p3650
V460060
p3651
sVp_throws
p3652
VR
sa(dp3653
Vatbat_count
p3654
V61
p3655
sVhandedness
p3656
VL
sVpitches
p3657
(lp3658
(dp3659
Vpz
p3660
V2.22086487718
p3661
sVpx
p3662
V-1.00733416712
p3663
sVdes
p3664
VIn play, out(s)
p3665
sVsz_top
p3666
V3.69565044463922
p3667
sVsz_bottom
p3668
V1.5151184376341007
p3669
sVtype
p3670
VX
sasVbatter_height
p3671
V5-10
p3672
sVinning_count
p3673
V8
sVpitcher_id
p3674
V573186
p3675
sVisHome
p3676
I1
sVbatter_id
p3677
V594777
p3678
sVp_throws
p3679
VR
sa(dp3680
Vatbat_count
p3681
V62
p3682
sVhandedness
p3683
VR
sVpitches
p3684
(lp3685
(dp3686
Vpz
p3687
V2.93429728542
p3688
sVpx
p3689
V-0.588072088113
p3690
sVdes
p3691
VCalled Strike
p3692
sVsz_top
p3693
V3.542285735885578
p3694
sVsz_bottom
p3695
V1.7318629104375987
p3696
sVtype
p3697
VS
sa(dp3698
Vpz
p3699
V2.73591971722
p3700
sVpx
p3701
V0.950470135338
p3702
sVdes
p3703
VBall
p3704
sVsz_top
p3705
V3.557327083214652
p3706
sVsz_bottom
p3707
V1.8071063473062807
p3708
sVtype
p3709
VB
sa(dp3710
Vpz
p3711
V3.67270264014
p3712
sVpx
p3713
V0.405784916999
p3714
sVdes
p3715
VBall
p3716
sVsz_top
p3717
V3.6024506538911254
p3718
sVsz_bottom
p3719
V1.6867159049923188
p3720
sVtype
p3721
VB
sa(dp3722
Vpz
p3723
V2.82998358556
p3724
sVpx
p3725
V-0.0161378350833
p3726
sVdes
p3727
VFoul
p3728
sVsz_top
p3729
V3.677655034031133
p3730
sVsz_bottom
p3731
V1.506120807887136
p3732
sVtype
p3733
VS
sa(dp3734
Vpz
p3735
V2.64658898095
p3736
sVpx
p3737
V0.437122751432
p3738
sVdes
p3739
VFoul
p3740
sVsz_top
p3741
V3.677655034031133
p3742
sVsz_bottom
p3743
V1.506120807887136
p3744
sVtype
p3745
VS
sa(dp3746
Vpz
p3747
V3.0348752484
p3748
sVpx
p3749
V-0.0593776455168
p3750
sVdes
p3751
VCalled Strike
p3752
sVsz_top
p3753
V3.4670778209509834
p3754
sVsz_bottom
p3755
V1.6415681920306824
p3756
sVtype
p3757
VS
sasVbatter_height
p3758
V5-10
p3759
sVinning_count
p3760
V9
sVpitcher_id
p3761
V572044
p3762
sVisHome
p3763
I0
sVbatter_id
p3764
V431145
p3765
sVp_throws
p3766
VR
sa(dp3767
Vatbat_count
p3768
V63
p3769
sVhandedness
p3770
VL
sVpitches
p3771
(lp3772
(dp3773
Vpz
p3774
V1.61616493234
p3775
sVpx
p3776
V0.204807776591
p3777
sVdes
p3778
VCalled Strike
p3779
sVsz_top
p3780
V3.522023645435766
p3781
sVsz_bottom
p3782
V1.7177057996921832
p3783
sVtype
p3784
VS
sa(dp3785
Vpz
p3786
V4.2133852492
p3787
sVpx
p3788
V-0.00636903244082
p3789
sVdes
p3790
VBall
p3791
sVsz_top
p3792
V3.5370650985796956
p3793
sVsz_bottom
p3794
V1.6725585723851282
p3795
sVtype
p3796
VB
sa(dp3797
Vpz
p3798
V1.9065366715
p3799
sVpx
p3800
V-1.0373905109
p3801
sVdes
p3802
VBall
p3803
sVsz_top
p3804
V3.522023645435766
p3805
sVsz_bottom
p3806
V1.642460027781702
p3807
sVtype
p3808
VB
sa(dp3809
Vpz
p3810
V2.1621042445
p3811
sVpx
p3812
V0.140980691661
p3813
sVdes
p3814
VFoul
p3815
sVsz_top
p3816
V3.747637194879168
p3817
sVsz_bottom
p3818
V1.537112645272103
p3819
sVtype
p3820
VS
sa(dp3821
Vpz
p3822
V2.22822002497
p3823
sVpx
p3824
V-0.330546332069
p3825
sVdes
p3826
VSwinging Strike
p3827
sVsz_top
p3828
V3.747637194879168
p3829
sVsz_bottom
p3830
V1.537112645272103
p3831
sVtype
p3832
VS
sasVbatter_height
p3833
V6-0
p3834
sVinning_count
p3835
V9
sVpitcher_id
p3836
V572044
p3837
sVisHome
p3838
I0
sVbatter_id
p3839
V458085
p3840
sVp_throws
p3841
VR
sa(dp3842
Vatbat_count
p3843
V64
p3844
sVhandedness
p3845
VR
sVpitches
p3846
(lp3847
(dp3848
Vpz
p3849
V3.82451716568
p3850
sVpx
p3851
V-0.372690946872
p3852
sVdes
p3853
VBall
p3854
sVsz_top
p3855
V3.4768988146797
p3856
sVsz_bottom
p3857
V1.642460027781702
p3858
sVtype
p3859
VB
sa(dp3860
Vpz
p3861
V2.70675322087
p3862
sVpx
p3863
V1.29712163198
p3864
sVdes
p3865
VBall
p3866
sVsz_top
p3867
V3.386647032173336
p3868
sVsz_bottom
p3869
V1.6876077267661316
p3870
sVtype
p3871
VB
sa(dp3872
Vpz
p3873
V3.09081730834
p3874
sVpx
p3875
V-0.0413233858692
p3876
sVdes
p3877
VFoul
p3878
sVsz_top
p3879
V3.747637194879168
p3880
sVsz_bottom
p3881
V1.537112645272103
p3882
sVtype
p3883
VS
sa(dp3884
Vpz
p3885
V3.05536516068
p3886
sVpx
p3887
V0.178375646022
p3888
sVdes
p3889
VSwinging Strike
p3890
sVsz_top
p3891
V3.747637194879168
p3892
sVsz_bottom
p3893
V1.537112645272103
p3894
sVtype
p3895
VS
sa(dp3896
Vpz
p3897
V2.57251387866
p3898
sVpx
p3899
V-0.363350775135
p3900
sVdes
p3901
VIn play, no out
p3902
sVsz_top
p3903
V3.747637194879168
p3904
sVsz_bottom
p3905
V1.537112645272103
p3906
sVtype
p3907
VX
sasVbatter_height
p3908
V5-9
p3909
sVinning_count
p3910
V9
sVpitcher_id
p3911
V572044
p3912
sVisHome
p3913
I0
sVbatter_id
p3914
V581527
p3915
sVp_throws
p3916
VR
sa(dp3917
Vatbat_count
p3918
V65
p3919
sVhandedness
p3920
VL
sVpitches
p3921
(lp3922
(dp3923
Vpz
p3924
V3.1458869163
p3925
sVpx
p3926
V-0.855394229567
p3927
sVdes
p3928
VBall
p3929
sVsz_top
p3930
V3.495927077177562
p3931
sVsz_bottom
p3932
V1.5815821907332008
p3933
sVtype
p3934
VB
sa(dp3935
Vpz
p3936
V2.11544772305
p3937
sVpx
p3938
V-1.41391539466
p3939
sVdes
p3940
VBall
p3941
sVsz_top
p3942
V3.6793096460223964
p3943
sVsz_bottom
p3944
V1.7188788492037403
p3945
sVtype
p3946
VB
sa(dp3947
Vpz
p3948
V2.54871971118
p3949
sVpx
p3950
V-0.450230123971
p3951
sVdes
p3952
VCalled Strike
p3953
sVsz_top
p3954
V3.6024506538911254
p3955
sVsz_bottom
p3956
V1.6716667459526562
p3957
sVtype
p3958
VS
sa(dp3959
Vpz
p3960
V2.02755743406
p3961
sVpx
p3962
V-0.184376400503
p3963
sVdes
p3964
VFoul
p3965
sVsz_top
p3966
V3.677655034031133
p3967
sVsz_bottom
p3968
V1.506120807887136
p3969
sVtype
p3970
VS
sa(dp3971
Vpz
p3972
V2.05011896942
p3973
sVpx
p3974
V0.890320127881
p3975
sVdes
p3976
VFoul
p3977
sVsz_top
p3978
V3.677655034031133
p3979
sVsz_bottom
p3980
V1.506120807887136
p3981
sVtype
p3982
VS
sa(dp3983
Vpz
p3984
V2.29401713103
p3985
sVpx
p3986
V0.467850386517
p3987
sVdes
p3988
VIn play, run(s)
p3989
sVsz_top
p3990
V3.677655034031133
p3991
sVsz_bottom
p3992
V1.506120807887136
p3993
sVtype
p3994
VX
sasVbatter_height
p3995
V5-10
p3996
sVinning_count
p3997
V9
sVpitcher_id
p3998
V572044
p3999
sVisHome
p4000
I0
sVbatter_id
p4001
V572365
p4002
sVp_throws
p4003
VR
sa(dp4004
Vatbat_count
p4005
V66
p4006
sVhandedness
p4007
VR
sVpitches
p4008
(lp4009
(dp4010
Vpz
p4011
V3.90232271446
p4012
sVpx
p4013
V1.807210952
p4014
sVdes
p4015
VBall
p4016
sVsz_top
p4017
V3.493642553125639
p4018
sVsz_bottom
p4019
V1.7799498442162545
p4020
sVtype
p4021
VB
sa(dp4022
Vpz
p4023
V3.0648290615
p4024
sVpx
p4025
V0.443352107543
p4026
sVdes
p4027
VFoul
p4028
sVsz_top
p4029
V3.747637194879168
p4030
sVsz_bottom
p4031
V1.537112645272103
p4032
sVtype
p4033
VS
sa(dp4034
Vpz
p4035
V3.33287695312
p4036
sVpx
p4037
V-0.135569317522
p4038
sVdes
p4039
VBall
p4040
sVsz_top
p4041
V3.0318957250014904
p4042
sVsz_bottom
p4043
V1.656005136644616
p4044
sVtype
p4045
VB
sa(dp4046
Vpz
p4047
V3.69516589022
p4048
sVpx
p4049
V0.162967543418
p4050
sVdes
p4051
VBall
p4052
sVsz_top
p4053
V3.4051390718893586
p4054
sVsz_bottom
p4055
V1.721834513907993
p4056
sVtype
p4057
VB
sa(dp4058
Vpz
p4059
V3.01618745464
p4060
sVpx
p4061
V0.216619530768
p4062
sVdes
p4063
VFoul
p4064
sVsz_top
p4065
V3.747637194879168
p4066
sVsz_bottom
p4067
V1.537112645272103
p4068
sVtype
p4069
VS
sa(dp4070
Vpz
p4071
V1.97939258356
p4072
sVpx
p4073
V0.327853151764
p4074
sVdes
p4075
VSwinging Strike
p4076
sVsz_top
p4077
V3.747637194879168
p4078
sVsz_bottom
p4079
V1.537112645272103
p4080
sVtype
p4081
VS
sasVbatter_height
p4082
V6-0
p4083
sVinning_count
p4084
V9
sVpitcher_id
p4085
V572044
p4086
sVisHome
p4087
I0
sVbatter_id
p4088
V607680
p4089
sVp_throws
p4090
VR
sa(dp4091
Vatbat_count
p4092
V67
p4093
sVhandedness
p4094
VR
sVpitches
p4095
(lp4096
(dp4097
Vpz
p4098
V2.00324056742
p4099
sVpx
p4100
V-0.000842333019919
p4101
sVdes
p4102
VFoul
p4103
sVsz_top
p4104
V3.8452251237599384
p4105
sVsz_bottom
p4106
V1.593196322594551
p4107
sVtype
p4108
VS
sa(dp4109
Vpz
p4110
V3.54288766143
p4111
sVpx
p4112
V0.233875280551
p4113
sVdes
p4114
VBall
p4115
sVsz_top
p4116
V3.301010399135933
p4117
sVsz_bottom
p4118
V1.6477216424610646
p4119
sVtype
p4120
VB
sa(dp4121
Vpz
p4122
V3.69840252312
p4123
sVpx
p4124
V-0.816705148781
p4125
sVdes
p4126
VBall
p4127
sVsz_top
p4128
V3.188588750351812
p4129
sVsz_bottom
p4130
V1.6590708945863781
p4131
sVtype
p4132
VB
sa(dp4133
Vpz
p4134
V1.88680139498
p4135
sVpx
p4136
V-0.00819918354004
p4137
sVdes
p4138
VSwinging Strike
p4139
sVsz_top
p4140
V3.8452251237599384
p4141
sVsz_bottom
p4142
V1.593196322594551
p4143
sVtype
p4144
VS
sa(dp4145
Vpz
p4146
V1.35699228701
p4147
sVpx
p4148
V0.623791718127
p4149
sVdes
p4150
VIn play, out(s)
p4151
sVsz_top
p4152
V3.8436127668873823
p4153
sVsz_bottom
p4154
V1.591098437222378
p4155
sVtype
p4156
VX
sasVbatter_height
p4157
V6-2
p4158
sVinning_count
p4159
V9
sVpitcher_id
p4160
V573186
p4161
sVisHome
p4162
I1
sVbatter_id
p4163
V545361
p4164
sVp_throws
p4165
VR
sa(dp4166
Vatbat_count
p4167
V68
p4168
sVhandedness
p4169
VR
sVpitches
p4170
(lp4171
(dp4172
Vpz
p4173
V2.78579104141
p4174
sVpx
p4175
V-0.615742228531
p4176
sVdes
p4177
VSwinging Strike
p4178
sVsz_top
p4179
V3.8666069207249905
p4180
sVsz_bottom
p4181
V1.603095281723995
p4182
sVtype
p4183
VS
sa(dp4184
Vpz
p4185
V2.8744239992
p4186
sVpx
p4187
V-0.735849570081
p4188
sVdes
p4189
VFoul
p4190
sVsz_top
p4191
V3.8666069207249905
p4192
sVsz_bottom
p4193
V1.603095281723995
p4194
sVtype
p4195
VS
sa(dp4196
Vpz
p4197
V0.679618246957
p4198
sVpx
p4199
V0.178108526505
p4200
sVdes
p4201
VFoul
p4202
sVsz_top
p4203
V3.8666069207249905
p4204
sVsz_bottom
p4205
V1.603095281723995
p4206
sVtype
p4207
VS
sa(dp4208
Vpz
p4209
V2.33702249471
p4210
sVpx
p4211
V-0.565136401605
p4212
sVdes
p4213
VIn play, no out
p4214
sVsz_top
p4215
V3.8666069207249905
p4216
sVsz_bottom
p4217
V1.603095281723995
p4218
sVtype
p4219
VX
sasVbatter_height
p4220
V6-3
p4221
sVinning_count
p4222
V9
sVpitcher_id
p4223
V573186
p4224
sVisHome
p4225
I1
sVbatter_id
p4226
V405395
p4227
sVp_throws
p4228
VR
sa(dp4229
Vatbat_count
p4230
V69
p4231
sVhandedness
p4232
VR
sVpitches
p4233
(lp4234
(dp4235
Vpz
p4236
V2.86437451055
p4237
sVpx
p4238
V-1.00993039727
p4239
sVdes
p4240
VBall
p4241
sVsz_top
p4242
V3.7150328499948344
p4243
sVsz_bottom
p4244
V1.7344324664407154
p4245
sVtype
p4246
VB
sa(dp4247
Vpz
p4248
V3.2384365116
p4249
sVpx
p4250
V-1.74858064261
p4251
sVdes
p4252
VHit By Pitch
p4253
sVsz_top
p4254
V3.925591935321137
p4255
sVsz_bottom
p4256
V1.6290884471110445
p4257
sVtype
p4258
VB
sasVbatter_height
p4259
V6-4
p4260
sVinning_count
p4261
V9
sVpitcher_id
p4262
V573186
p4263
sVisHome
p4264
I1
sVbatter_id
p4265
V543068
p4266
sVp_throws
p4267
VR
sa(dp4268
Vatbat_count
p4269
V70
p4270
sVhandedness
p4271
VR
sVpitches
p4272
(lp4273
(dp4274
Vpz
p4275
V2.30694466558
p4276
sVpx
p4277
V-0.568237404774
p4278
sVdes
p4279
VIn play, run(s)
p4280
sVsz_top
p4281
V3.925591935321137
p4282
sVsz_bottom
p4283
V1.6290884471110445
p4284
sVtype
p4285
VX
sasVbatter_height
p4286
V6-2
p4287
sVinning_count
p4288
V9
sVpitcher_id
p4289
V573186
p4290
sVisHome
p4291
I1
sVbatter_id
p4292
V592743
p4293
sVp_throws
p4294
VR
sa(dp4295
Vatbat_count
p4296
V71
p4297
sVhandedness
p4298
VL
sVpitches
p4299
(lp4300
(dp4301
Vpz
p4302
V2.39059229639
p4303
sVpx
p4304
V-0.7439493628
p4305
sVdes
p4306
VFoul
p4307
sVsz_top
p4308
V3.8436127668873823
p4309
sVsz_bottom
p4310
V1.591098437222378
p4311
sVtype
p4312
VS
sa(dp4313
Vpz
p4314
V4.23346529388
p4315
sVpx
p4316
V-0.29586807204
p4317
sVdes
p4318
VBall
p4319
sVsz_top
p4320
V3.3021286004956067
p4321
sVsz_bottom
p4322
V1.591098437222378
p4323
sVtype
p4324
VB
sa(dp4325
Vpz
p4326
V2.05849530313
p4327
sVpx
p4328
V-0.720155046746
p4329
sVdes
p4330
VIn play, out(s)
p4331
sVsz_top
p4332
V3.8436127668873823
p4333
sVsz_bottom
p4334
V1.591098437222378
p4335
sVtype
p4336
VX
sasVbatter_height
p4337
V6-0
p4338
sVinning_count
p4339
V9
sVpitcher_id
p4340
V573186
p4341
sVisHome
p4342
I1
sVbatter_id
p4343
V457787
p4344
sVp_throws
p4345
VR
sasVteams
p4346
(lp4347
(dp4348
Vshort_name
p4349
VToronto
p4350
sVwins
p4351
V5
sVlosses
p4352
V13
p4353
sVteam_flag
p4354
Vaway
p4355
sVfull_name
p4356
VToronto Blue Jays
p4357
sVteam_code
p4358
Vtor
p4359
sVid
p4360
V141
p4361
sa(dp4362
Vshort_name
p4363
VLA Angels
p4364
sVwins
p4365
V8
sVlosses
p4366
V12
p4367
sVteam_flag
p4368
Vhome
p4369
sVfull_name
p4370
VLos Angeles Angels
p4371
sVteam_code
p4372
Vana
p4373
sVid
p4374
V108
p4375
sasVdate
p4376
VApril 23, 2017
p4377
sVgame_id
p4378
V2017/04/23/tormlb-anamlb-1
p4379
sV_id
p4380
ccopy_reg
_reconstructor
p4381
(cbson.objectid
ObjectId
p4382
c__builtin__
object
p4383
NtRp4384
S'[\x92]\xb7\xcfv\x1f \x16\x07\xee\x1f'
p4385
bs.