(dp1
S'venue_id'
p2
V3312
p3
sS'venue_name'
p4
VTarget Field
p5
sS'umpire'
p6
(dp7
S'id'
p8
V427019
p9
sS'name'
p10
VTed Barrett
p11
ssS'game_type'
p12
VR
sS'pitches'
p13
(lp14
(dp15
S'des'
p16
VBall
p17
sS'batter_height'
p18
V6-1
p19
sS'pz'
p20
F1.1042181928775401
sS'p_throws'
p21
VR
sS'px'
p22
F0.44094206569320799
sS'handedness'
p23
VL
sS'pitcher_id'
p24
V429722
p25
sS'sz_top'
p26
F3.4988925402218811
sS'sz_bottom'
p27
F1.6228819441924145
sS'inning_count'
p28
V1
sS'pitch_count'
p29
I1
sS'atbat_count'
p30
I1
sS'isHome'
p31
I0
sS'batter_id'
p32
V444482
p33
sS'type'
p34
VB
sa(dp35
g16
VCalled Strike
p36
sg18
g19
sg20
F2.7199158260351899
sg21
VR
sg22
F0.26529680609386702
sg23
VL
sg24
g25
sg26
F3.4558533541489993
sg27
F1.5266874480773609
sg28
V1
sg29
I2
sg30
I1
sg31
I0
sg32
g33
sg34
VS
sa(dp37
g16
VIn play, no out
p38
sg18
g19
sg20
F2.5128021257986499
sg21
VR
sg22
F-0.63877585589030805
sg23
VL
sg24
g25
sg26
F3.3267309820679429
sg27
F1.4075380587264874
sg28
V1
sg29
I3
sg30
I1
sg31
I0
sg32
g33
sg34
VX
sa(dp39
g16
VSwinging Strike
p40
sg18
V6-1
p41
sg20
F3.1638782737067599
sg21
VR
sg22
F0.67809231768621703
sg23
VR
sg24
V429722
p42
sg26
F3.4614595050379009
sg27
F1.5768355346042
sg28
V1
sg29
I1
sg30
I2
sg31
I0
sg32
V572041
p43
sg34
VS
sa(dp44
g16
VIn play, out(s)
p45
sg18
g41
sg20
F1.5758569304094501
sg21
VR
sg22
F0.40895708406412601
sg23
VR
sg24
g42
sg26
F3.2462520623468478
sg27
F1.3069389039227062
sg28
V1
sg29
I2
sg30
I2
sg31
I0
sg32
g43
sg34
VX
sa(dp46
g16
VCalled Strike
p47
sg18
V6-3
p48
sg20
F3.0073766044796799
sg21
VR
sg22
F-0.72282819924151698
sg23
VL
sg24
V429722
p49
sg26
F3.5075506680103814
sg27
F1.6444152284906579
sg28
V1
sg29
I1
sg30
I3
sg31
I0
sg32
V571875
p50
sg34
VS
sa(dp51
g16
VBall
p52
sg18
g48
sg20
F2.3261859205706599
sg21
VR
sg22
F-1.48418991256363
sg23
VL
sg24
g49
sg26
F3.5606479091079422
sg27
F1.6544741104911012
sg28
V1
sg29
I2
sg30
I3
sg31
I0
sg32
g50
sg34
VB
sa(dp53
g16
VIn play, run(s)
p54
sg18
g48
sg20
F2.3031272042750901
sg21
VR
sg22
F0.72124738069326499
sg23
VL
sg24
g49
sg26
F3.3870901581244084
sg27
F1.4175979724095598
sg28
V1
sg29
I3
sg30
I3
sg31
I0
sg32
g50
sg34
VX
sa(dp55
g16
VCalled Strike
p56
sg18
V6-3
p57
sg20
F2.4715724662070402
sg21
VR
sg22
F0.92448109218327401
sg23
VR
sg24
V429722
p58
sg26
F3.6022844746153524
sg27
F1.6975398892464639
sg28
V1
sg29
I1
sg30
I4
sg31
I0
sg32
V502671
p59
sg34
VS
sa(dp60
g16
VBall In Dirt
p61
sg18
g57
sg20
F0.37942755843758602
sg21
VR
sg22
F-1.0439100511480099
sg23
VR
sg24
g58
sg26
F3.6016572531438058
sg27
F1.6853304254313102
sg28
V1
sg29
I2
sg30
I4
sg31
I0
sg32
g59
sg34
VB
sa(dp62
g16
VBall In Dirt
p63
sg18
g57
sg20
F0.57878397889421995
sg21
VR
sg22
F1.3509910753641801
sg23
VR
sg24
g58
sg26
F3.5592472158453177
sg27
F1.5999330996770027
sg28
V1
sg29
I3
sg30
I4
sg31
I0
sg32
g59
sg34
VB
sa(dp64
g16
VIn play, run(s)
p65
sg18
g57
sg20
F1.9197876868386301
sg21
VR
sg22
F0.096809120087912398
sg23
VR
sg24
g58
sg26
F3.2965513896225787
sg27
F1.4175979724095598
sg28
V1
sg29
I4
sg30
I4
sg31
I0
sg32
g59
sg34
VX
sa(dp66
g16
VBall
p67
sg18
V5-10
p68
sg20
F1.123634912395
sg21
VR
sg22
F-0.037475130157934501
sg23
VL
sg24
V429722
p69
sg26
F3.1210880590094447
sg27
F1.4806395989863148
sg28
V1
sg29
I1
sg30
I5
sg31
I0
sg32
V518614
p70
sg34
VB
sa(dp71
g16
VFoul
p72
sg18
g68
sg20
F2.2807383726753199
sg21
VR
sg22
F0.080564325447541205
sg23
VL
sg24
g69
sg26
F3.034994798520799
sg27
F1.2868190690375911
sg28
V1
sg29
I2
sg30
I5
sg31
I0
sg32
g70
sg34
VS
sa(dp73
g16
VBall In Dirt
p74
sg18
g68
sg20
F0.89666448407374
sg21
VR
sg22
F0.24116880171174701
sg23
VL
sg24
g69
sg26
F3.2502219312737921
sg27
F1.4806395989863148
sg28
V1
sg29
I3
sg30
I5
sg31
I0
sg32
g70
sg34
VB
sa(dp75
g16
VIn play, out(s)
p76
sg18
g68
sg20
F3.1913496188752601
sg21
VR
sg22
F-0.076156721602182606
sg23
VL
sg24
g69
sg26
F3.034994798520799
sg27
F1.2868190690375911
sg28
V1
sg29
I4
sg30
I5
sg31
I0
sg32
g70
sg34
VX
sa(dp77
g16
VBall In Dirt
p78
sg18
V6-0
p79
sg20
F0.94436931135041202
sg21
VR
sg22
F0.60324804981778402
sg23
VR
sg24
V429722
p80
sg26
F3.337946681306569
sg27
F1.5409940349095805
sg28
V1
sg29
I1
sg30
I6
sg31
I0
sg32
V455104
p81
sg34
VB
sa(dp82
g16
VBall
p83
sg18
g79
sg20
F3.7469488169253702
sg21
VR
sg22
F0.13812684831615599
sg23
VR
sg24
g80
sg26
F3.337946681306569
sg27
F1.5194597863635266
sg28
V1
sg29
I2
sg30
I6
sg31
I0
sg32
g81
sg34
VB
sa(dp84
g16
VCalled Strike
p85
sg18
g79
sg20
F2.2633730105170899
sg21
VR
sg22
F0.44276098953255599
sg23
VR
sg24
g80
sg26
F3.337946681306569
sg27
F1.574003045411942
sg28
V1
sg29
I3
sg30
I6
sg31
I0
sg32
g81
sg34
VS
sa(dp86
g16
VBall
p87
sg18
g79
sg20
F2.68017105018947
sg21
VR
sg22
F1.4103988703796499
sg23
VR
sg24
g80
sg26
F3.337946681306569
sg27
F1.5625280826821353
sg28
V1
sg29
I4
sg30
I6
sg31
I0
sg32
g81
sg34
VB
sa(dp88
g16
VBall
p89
sg18
g79
sg20
F4.3147269371745702
sg21
VR
sg22
F0.149813338765243
sg23
VR
sg24
g80
sg26
F3.337946681306569
sg27
F1.584061929682953
sg28
V1
sg29
I5
sg30
I6
sg31
I0
sg32
g81
sg34
VB
sa(dp90
g16
VCalled Strike
p91
sg18
V6-2
p92
sg20
F2.2817458055803401
sg21
VR
sg22
F0.77501191379924195
sg23
VR
sg24
V429722
p93
sg26
F3.6584387267671801
sg27
F1.6731768198521522
sg28
V1
sg29
I1
sg30
I7
sg31
I0
sg32
V592273
p94
sg34
VS
sa(dp95
g16
VBall
p96
sg18
g92
sg20
F1.23021411269211
sg21
VR
sg22
F0.73123337810499101
sg23
VR
sg24
g93
sg26
F3.6268614256349849
sg27
F1.6731768198521522
sg28
V1
sg29
I2
sg30
I7
sg31
I0
sg32
g94
sg34
VB
sa(dp97
g16
VCalled Strike
p98
sg18
g92
sg20
F2.13075175618618
sg21
VR
sg22
F-0.35854429378887898
sg23
VR
sg24
g93
sg26
F3.7875425498140487
sg27
F1.6947096352381479
sg28
V1
sg29
I3
sg30
I7
sg31
I0
sg32
g94
sg34
VS
sa(dp99
g16
VBall In Dirt
p100
sg18
g92
sg20
F0.804400424102233
sg21
VR
sg22
F1.34540544888609
sg23
VR
sg24
g93
sg26
F3.6053431255908066
sg27
F1.7377746637504785
sg28
V1
sg29
I4
sg30
I7
sg31
I0
sg32
g94
sg34
VB
sa(dp101
g16
VFoul
p102
sg18
g92
sg20
F2.6166088488984598
sg21
VR
sg22
F-0.62846876490901904
sg23
VR
sg24
g93
sg26
F3.4776289001415179
sg27
F1.4578376238684285
sg28
V1
sg29
I5
sg30
I7
sg31
I0
sg32
g94
sg34
VS
sa(dp103
g16
VIn play, out(s)
p104
sg18
g92
sg20
F1.94798702641871
sg21
VR
sg22
F-0.59882014333614397
sg23
VR
sg24
g93
sg26
F3.4776289001415179
sg27
F1.4578376238684285
sg28
V1
sg29
I6
sg30
I7
sg31
I0
sg32
g94
sg34
VX
sa(dp105
g16
VCalled Strike
p106
sg18
V5-11
p107
sg20
F3.3722742061952302
sg21
VR
sg22
F-0.27870930558669299
sg23
VR
sg24
V643327
p108
sg26
F2.9377218687580111
sg27
F1.3627335331829684
sg28
V1
sg29
I1
sg30
I8
sg31
I1
sg32
V572821
p109
sg34
VS
sa(dp110
g16
VBall
p111
sg18
g107
sg20
F2.4024664084942402
sg21
VR
sg22
F1.78612625997953
sg23
VR
sg24
g108
sg26
F2.9054042728255922
sg27
F1.368439894733875
sg28
V1
sg29
I2
sg30
I8
sg31
I1
sg32
g109
sg34
VB
sa(dp112
g16
VCalled Strike
p113
sg18
g107
sg20
F2.8721920761503399
sg21
VR
sg22
F0.23924009872990301
sg23
VR
sg24
g108
sg26
F2.9383947748118473
sg27
F1.368439894733875
sg28
V1
sg29
I3
sg30
I8
sg31
I1
sg32
g109
sg34
VS
sa(dp114
g16
VFoul
p115
sg18
g107
sg20
F1.83295192273361
sg21
VR
sg22
F0.66361975590464295
sg23
VR
sg24
g108
sg26
F2.7331984572168651
sg27
F1.0453809484107595
sg28
V1
sg29
I4
sg30
I8
sg31
I1
sg32
g109
sg34
VS
sa(dp116
g16
VBall
p117
sg18
g107
sg20
F1.74642174186211
sg21
VR
sg22
F2.0914781055549101
sg23
VR
sg24
g108
sg26
F2.9269290968424002
sg27
F1.3899755513400009
sg28
V1
sg29
I5
sg30
I8
sg31
I1
sg32
g109
sg34
VB
sa(dp118
g16
VBall
p119
sg18
g107
sg20
F3.5986585130952
sg21
VR
sg22
F-0.38114958476539301
sg23
VR
sg24
g108
sg26
F2.9269290968424002
sg27
F1.346904037329665
sg28
V1
sg29
I6
sg30
I8
sg31
I1
sg32
g109
sg34
VB
sa(dp120
g16
VCalled Strike
p121
sg18
g107
sg20
F2.7546062519676902
sg21
VR
sg22
F0.491063219077848
sg23
VR
sg24
g108
sg26
F2.8738200214612846
sg27
F1.3253679791250761
sg28
V1
sg29
I7
sg30
I8
sg31
I1
sg32
g109
sg34
VS
sa(dp122
g16
VBall
p123
sg18
V6-4
p124
sg20
F2.6405398775956801
sg21
VR
sg22
F-1.0562590712047899
sg23
VL
sg24
V643327
p125
sg26
F3.3094145124365966
sg27
F1.7003708355213405
sg28
V1
sg29
I1
sg30
I9
sg31
I1
sg32
V596146
p126
sg34
VB
sa(dp127
g16
VBall
p128
sg18
g124
sg20
F1.1510425643458799
sg21
VR
sg22
F0.162098431469341
sg23
VL
sg24
g125
sg26
F3.4170177976039113
sg27
F1.5927050148996429
sg28
V1
sg29
I2
sg30
I9
sg31
I1
sg32
g126
sg34
VB
sa(dp129
g16
VBall
p130
sg18
g124
sg20
F2.3750529143070902
sg21
VR
sg22
F-1.0888459002155599
sg23
VL
sg24
g125
sg26
F3.503096815299422
sg27
F1.6142385805487578
sg28
V1
sg29
I3
sg30
I9
sg31
I1
sg32
g126
sg34
VB
sa(dp131
g16
VCalled Strike
p132
sg18
g124
sg20
F2.2849766044636599
sg21
VR
sg22
F-0.53856738200230203
sg23
VL
sg24
g125
sg26
F3.3739770852915285
sg27
F1.5180438548947777
sg28
V1
sg29
I4
sg30
I9
sg31
I1
sg32
g126
sg34
VS
sa(dp133
g16
VIn play, out(s)
p134
sg18
g124
sg20
F2.7557182044823101
sg21
VR
sg22
F-0.662443064831711
sg23
VL
sg24
g125
sg26
F3.2663717942388146
sg27
F1.3773583157188938
sg28
V1
sg29
I5
sg30
I9
sg31
I1
sg32
g126
sg34
VX
sa(dp135
g16
VCalled Strike
p136
sg18
V6-5
p137
sg20
F2.6163183194338302
sg21
VR
sg22
F-0.13553492476669499
sg23
VL
sg24
V643327
p138
sg26
F3.5304708520699464
sg27
F1.7478333565665665
sg28
V1
sg29
I1
sg30
I10
sg31
I1
sg32
V408045
p139
sg34
VS
sa(dp140
g16
VIn play, no out
p141
sg18
g137
sg20
F3.5016569075868702
sg21
VR
sg22
F0.959478690126495
sg23
VL
sg24
g138
sg26
F3.3267309820679429
sg27
F1.4678975359165065
sg28
V1
sg29
I2
sg30
I10
sg31
I1
sg32
g139
sg34
VX
sa(dp142
g16
VBall
p143
sg18
V6-4
p144
sg20
F2.1588127710056
sg21
VR
sg22
F-1.97645929254245
sg23
VR
sg24
V643327
p145
sg26
F3.6984151344924712
sg27
F1.6961246757072104
sg28
V1
sg29
I1
sg30
I11
sg31
I1
sg32
V593934
p146
sg34
VB
sa(dp147
g16
VBall
p148
sg18
g144
sg20
F3.44239326275952
sg21
VR
sg22
F-1.3867812935436299
sg23
VR
sg24
g145
sg26
F3.6768975013337553
sg27
F1.8683798663381168
sg28
V1
sg29
I2
sg30
I11
sg31
I1
sg32
g146
sg34
VB
sa(dp149
g16
VSwinging Strike
p150
sg18
g144
sg20
F1.90857983759091
sg21
VR
sg22
F0.66119117055493803
sg23
VR
sg24
g145
sg26
F3.3971500196564932
sg27
F1.4377177987929812
sg28
V1
sg29
I3
sg30
I11
sg31
I1
sg32
g146
sg34
VS
sa(dp151
g16
VFoul
p152
sg18
g144
sg20
F1.92503216241335
sg21
VR
sg22
F-0.76023379449332595
sg23
VR
sg24
g145
sg26
F3.3965088342025282
sg27
F1.4369641763209842
sg28
V1
sg29
I4
sg30
I11
sg31
I1
sg32
g146
sg34
VS
sa(dp153
g16
VBall In Dirt
p154
sg18
g144
sg20
F0.59919375636843297
sg21
VR
sg22
F1.5404516245111
sg23
VR
sg24
g145
sg26
F3.6338616333794391
sg27
F1.825317273127915
sg28
V1
sg29
I5
sg30
I11
sg31
I1
sg32
g146
sg34
VB
sa(dp155
g16
VBall
p156
sg18
g144
sg20
F2.0306751851684601
sg21
VR
sg22
F1.24042428532894
sg23
VR
sg24
g145
sg26
F3.7199325671079961
sg27
F1.8037856754185242
sg28
V1
sg29
I6
sg30
I11
sg31
I1
sg32
g146
sg34
VB
sa(dp157
g16
VCalled Strike
p158
sg18
V6-1
p159
sg20
F2.7230665261368601
sg21
VR
sg22
F0.91019437540454795
sg23
VL
sg24
V643327
p160
sg26
F3.0148750515895273
sg27
F1.2868190690375911
sg28
V1
sg29
I1
sg30
I12
sg31
I1
sg32
V592696
p161
sg34
VS
sa(dp162
g16
VIn play, out(s)
p163
sg18
g159
sg20
F2.75286463469403
sg21
VR
sg22
F-0.19912201103713201
sg23
VL
sg24
g160
sg26
F2.9947553033494501
sg27
F1.2868190690375911
sg28
V1
sg29
I2
sg30
I12
sg31
I1
sg32
g161
sg34
VX
sa(dp164
g16
VFoul
p165
sg18
V6-1
p166
sg20
F1.66271783307867
sg21
VR
sg22
F0.398298831601754
sg23
VL
sg24
V429722
p167
sg26
F3.3267309820679429
sg27
F1.3974781447183062
sg28
V2
sg29
I1
sg30
I13
sg31
I0
sg32
V606466
p168
sg34
VS
sa(dp169
g16
VFoul
p170
sg18
g166
sg20
F3.47938114130551
sg21
VR
sg22
F0.32440159860762102
sg23
VL
sg24
g167
sg26
F3.3267309820679429
sg27
F1.3974781447183062
sg28
V2
sg29
I2
sg30
I13
sg31
I0
sg32
g168
sg34
VS
sa(dp171
g16
VCalled Strike
p172
sg18
g166
sg20
F2.4481347876426001
sg21
VR
sg22
F-0.209651951117794
sg23
VL
sg24
g167
sg26
F3.5964283505257768
sg27
F1.7534940787727038
sg28
V2
sg29
I3
sg30
I13
sg31
I0
sg32
g168
sg34
VS
sa(dp173
g16
VCalled Strike
p174
sg18
V5-10
p175
sg20
F2.6500940864474698
sg21
VR
sg22
F0.74225205575152897
sg23
VL
sg24
V429722
p176
sg26
F3.0909095633451003
sg27
F1.3371186537972832
sg28
V2
sg29
I1
sg30
I14
sg31
I0
sg32
V453923
p177
sg34
VS
sa(dp178
g16
VBall
p179
sg18
g175
sg20
F3.2097315538109301
sg21
VR
sg22
F1.1529420796952199
sg23
VL
sg24
g176
sg26
F3.1023732527711019
sg27
F1.4878660776213763
sg28
V2
sg29
I2
sg30
I14
sg31
I0
sg32
g177
sg34
VB
sa(dp180
g16
VIn play, out(s)
p181
sg18
g175
sg20
F2.2000788505929201
sg21
VR
sg22
F0.29117409488229001
sg23
VL
sg24
g176
sg26
F3.0249349252176927
sg27
F1.3371186537972832
sg28
V2
sg29
I3
sg30
I14
sg31
I0
sg32
g177
sg34
VX
sa(dp182
g16
VIn play, run(s)
p183
sg18
V6-1
p184
sg20
F2.5737951632132599
sg21
VR
sg22
F-0.157287496048479
sg23
VL
sg24
V429722
p185
sg26
F3.3267309820679429
sg27
F1.4075380587264874
sg28
V2
sg29
I1
sg30
I15
sg31
I0
sg32
V444482
p186
sg34
VX
sa(dp187
g16
VCalled Strike
p188
sg18
V6-1
p189
sg20
F2.1440821273021702
sg21
VR
sg22
F0.60075628860560004
sg23
VR
sg24
V429722
p190
sg26
F3.2677737092750192
sg27
F1.5768355346042
sg28
V2
sg29
I1
sg30
I16
sg31
I0
sg32
V572041
p191
sg34
VS
sa(dp192
g16
VBall
p193
sg18
g189
sg20
F1.33231236177349
sg21
VR
sg22
F-0.629753800170889
sg23
VR
sg24
g190
sg26
F3.5475368659107289
sg27
F1.5868942326077971
sg28
V2
sg29
I2
sg30
I16
sg31
I0
sg32
g191
sg34
VB
sa(dp194
g16
VCalled Strike
p195
sg18
g189
sg20
F1.68725419640904
sg21
VR
sg22
F-0.39439346400431002
sg23
VR
sg24
g190
sg26
F3.4184196211746567
sg27
F1.555301620227894
sg28
V2
sg29
I3
sg30
I16
sg31
I0
sg32
g191
sg34
VS
sa(dp196
g16
VFoul
p197
sg18
g189
sg20
F1.9565976189302099
sg21
VR
sg22
F1.1163655780802
sg23
VR
sg24
g190
sg26
F3.2462520623468478
sg27
F1.3069389039227062
sg28
V2
sg29
I4
sg30
I16
sg31
I0
sg32
g191
sg34
VS
sa(dp198
g16
VIn play, no out
p199
sg18
g189
sg20
F2.27585323639711
sg21
VR
sg22
F1.0192835334507599
sg23
VR
sg24
g190
sg26
F3.2462520623468478
sg27
F1.3069389039227062
sg28
V2
sg29
I5
sg30
I16
sg31
I0
sg32
g191
sg34
VX
sa(dp200
g16
VCalled Strike
p201
sg18
V6-3
p202
sg20
F2.97164741577431
sg21
VR
sg22
F-0.152107157054818
sg23
VL
sg24
V429722
p203
sg26
F3.4860312559562061
sg27
F1.6659483120288812
sg28
V2
sg29
I1
sg30
I17
sg31
I0
sg32
V571875
p204
sg34
VS
sa(dp205
g16
VBall
p206
sg18
g202
sg20
F1.2486431011338199
sg21
VR
sg22
F-0.437210343899188
sg23
VL
sg24
g203
sg26
F3.5176098742064354
sg27
F1.676007100247773
sg28
V2
sg29
I2
sg30
I17
sg31
I0
sg32
g204
sg34
VB
sa(dp207
g16
VCalled Strike
p208
sg18
g202
sg20
F1.8470464792154699
sg21
VR
sg22
F-0.70281784932354796
sg23
VL
sg24
g203
sg26
F3.5721077007806343
sg27
F1.6874811948088393
sg28
V2
sg29
I3
sg30
I17
sg31
I0
sg32
g204
sg34
VS
sa(dp209
g16
VBall
p210
sg18
g202
sg20
F3.1468046772929101
sg21
VR
sg22
F1.2488957047920599
sg23
VL
sg24
g203
sg26
F3.4530513176018118
sg27
F1.6114075286967662
sg28
V2
sg29
I4
sg30
I17
sg31
I0
sg32
g204
sg34
VB
sa(dp211
g16
VBall
p212
sg18
g202
sg20
F5.0769812255248601
sg21
VR
sg22
F-1.0089105951986901
sg23
VL
sg24
g203
sg26
F3.5391289919391653
sg27
F1.6544741104911012
sg28
V2
sg29
I5
sg30
I17
sg31
I0
sg32
g204
sg34
VB
sa(dp213
g16
VSwinging Strike
p214
sg18
g202
sg20
F1.38465481848426
sg21
VR
sg22
F0.42519959472067598
sg23
VL
sg24
g203
sg26
F3.3870901581244084
sg27
F1.4175979724095598
sg28
V2
sg29
I6
sg30
I17
sg31
I0
sg32
g204
sg34
VS
sa(dp215
g16
VBall
p216
sg18
V5-10
p217
sg20
F0.95448681171123495
sg21
VR
sg22
F2.17865061313432
sg23
VL
sg24
V643327
p218
sg26
F3.2687064596461752
sg27
F1.5422692845686115
sg28
V2
sg29
I1
sg30
I18
sg31
I1
sg32
V500871
p219
sg34
VB
sa(dp220
g16
VFoul
p221
sg18
g217
sg20
F2.1617305561773801
sg21
VR
sg22
F-0.0028937180193038801
sg23
VL
sg24
g218
sg26
F2.9444559270293809
sg27
F1.1761599537951568
sg28
V2
sg29
I2
sg30
I18
sg31
I1
sg32
g219
sg34
VS
sa(dp222
g16
VCalled Strike
p223
sg18
g217
sg20
F3.1427748360721601
sg21
VR
sg22
F-0.417131702540328
sg23
VL
sg24
g218
sg26
F3.0131392688668299
sg27
F1.40050216748552
sg28
V2
sg29
I3
sg30
I18
sg31
I1
sg32
g219
sg34
VS
sa(dp224
g16
VBall
p225
sg18
g217
sg20
F2.4019280461893699
sg21
VR
sg22
F-1.03857278762579
sg23
VL
sg24
g218
sg26
F3.160438839995841
sg27
F1.3476937281086805
sg28
V2
sg29
I4
sg30
I18
sg31
I1
sg32
g219
sg34
VB
sa(dp226
g16
VCalled Strike
p227
sg18
g217
sg20
F2.0826589712743599
sg21
VR
sg22
F-0.63829647120298805
sg23
VL
sg24
g218
sg26
F3.0735996775123695
sg27
F1.3915254115524505
sg28
V2
sg29
I5
sg30
I18
sg31
I1
sg32
g219
sg34
VS
sa(dp228
g16
VSwinging Strike
p229
sg18
V6-2
p230
sg20
F1.8200553044705901
sg21
VR
sg22
F0.93488433462273302
sg23
VR
sg24
V643327
p231
sg26
F3.0752342884614521
sg27
F1.2063397164228462
sg28
V2
sg29
I1
sg30
I19
sg31
I1
sg32
V621439
p232
sg34
VS
sa(dp233
g16
VBall
p234
sg18
g230
sg20
F1.7543466224668001
sg21
VR
sg22
F0.65947028290156995
sg23
VR
sg24
g231
sg26
F3.1991166149760417
sg27
F1.5718702755195366
sg28
V2
sg29
I2
sg30
I19
sg31
I1
sg32
g232
sg34
VB
sa(dp235
g16
VBall
p236
sg18
g230
sg20
F2.12040095436131
sg21
VR
sg22
F1.4057728367931701
sg23
VR
sg24
g231
sg26
F3.2023127633155326
sg27
F1.5602241429813759
sg28
V2
sg29
I3
sg30
I19
sg31
I1
sg32
g232
sg34
VB
sa(dp237
g16
VBall
p238
sg18
g230
sg20
F3.5887483039825101
sg21
VR
sg22
F-0.34938595065859201
sg23
VR
sg24
g231
sg26
F3.2675328418433267
sg27
F1.5609687281615123
sg28
V2
sg29
I4
sg30
I19
sg31
I1
sg32
g232
sg34
VB
sa(dp239
g16
VCalled Strike
p240
sg18
g230
sg20
F2.78613770976773
sg21
VR
sg22
F0.34485675558286599
sg23
VR
sg24
g231
sg26
F3.2144300341519241
sg27
F1.5609687281615123
sg28
V2
sg29
I5
sg30
I19
sg31
I1
sg32
g232
sg34
VS
sa(dp241
g16
VIn play, no out
p242
sg18
g230
sg20
F1.66574003748804
sg21
VR
sg22
F0.25286209226175999
sg23
VR
sg24
g231
sg26
F3.0752342884614521
sg27
F1.2063397164228462
sg28
V2
sg29
I6
sg30
I19
sg31
I1
sg32
g232
sg34
VX
sa(dp243
g16
VBall In Dirt
p244
sg18
V5-11
p245
sg20
F0.83762052801114095
sg21
VR
sg22
F0.400071995966162
sg23
VL
sg24
V643327
p246
sg26
F3.4184196211746567
sg27
F1.6114075286967662
sg28
V2
sg29
I1
sg30
I20
sg31
I1
sg32
V593871
p247
sg34
VB
sa(dp248
g16
VIn play, run(s)
p249
sg18
g245
sg20
F3.0727246059653202
sg21
VR
sg22
F-0.031013020083372801
sg23
VL
sg24
g246
sg26
F3.2462520623468478
sg27
F1.427657885765143
sg28
V2
sg29
I2
sg30
I20
sg31
I1
sg32
g247
sg34
VX
sa(dp250
g16
VCalled Strike
p251
sg18
V6-3
p252
sg20
F2.6301752252860902
sg21
VR
sg22
F-0.26337741584486302
sg23
VL
sg24
V643327
p253
sg26
F3.7573666313919816
sg27
F1.7593068768824267
sg28
V2
sg29
I1
sg30
I21
sg31
I1
sg32
V488771
p254
sg34
VS
sa(dp255
g16
VSwinging Strike
p256
sg18
g252
sg20
F1.6302288729347001
sg21
VR
sg22
F1.0062092040925501
sg23
VL
sg24
g253
sg26
F3.4776289001415179
sg27
F1.4578376238668653
sg28
V2
sg29
I2
sg30
I21
sg31
I1
sg32
g254
sg34
VS
sa(dp257
g16
VBall In Dirt
p258
sg18
g252
sg20
F0.63835704848756702
sg21
VR
sg22
F-0.60519878537116201
sg23
VL
sg24
g253
sg26
F3.6497792073224744
sg27
F1.673176819850589
sg28
V2
sg29
I3
sg30
I21
sg31
I1
sg32
g254
sg34
VB
sa(dp259
g16
VSwinging Strike
p260
sg18
g252
sg20
F3.3799602946410601
sg21
VR
sg22
F0.133929555773114
sg23
VL
sg24
g253
sg26
F3.4776289001415179
sg27
F1.4578376238668653
sg28
V2
sg29
I4
sg30
I21
sg31
I1
sg32
g254
sg34
VS
sa(dp261
g16
VFoul Tip
p262
sg18
V5-11
p263
sg20
F2.0623130197245501
sg21
VR
sg22
F0.569342791836845
sg23
VR
sg24
V643327
p264
sg26
F2.7331984572168651
sg27
F1.0453809484107595
sg28
V2
sg29
I1
sg30
I22
sg31
I1
sg32
V572821
p265
sg34
VS
sa(dp266
g16
VSwinging Strike
p267
sg18
g263
sg20
F2.1487277551389101
sg21
VR
sg22
F0.57889962170653997
sg23
VR
sg24
g264
sg26
F2.7331984572168651
sg27
F1.0453809484107595
sg28
V2
sg29
I2
sg30
I22
sg31
I1
sg32
g265
sg34
VS
sa(dp268
g16
VBall In Dirt
p269
sg18
g263
sg20
F0.20515306535861
sg21
VR
sg22
F2.1008962117740202
sg23
VR
sg24
g264
sg26
F3.0130263865081943
sg27
F1.4115110071529386
sg28
V2
sg29
I3
sg30
I22
sg31
I1
sg32
g265
sg34
VB
sa(dp270
g16
VSwinging Strike
p271
sg18
g263
sg20
F2.6812863870656698
sg21
VR
sg22
F1.6512127803819401
sg23
VR
sg24
g264
sg26
F2.7331984572168651
sg27
F1.0453809484107595
sg28
V2
sg29
I4
sg30
I22
sg31
I1
sg32
g265
sg34
VS
sa(dp272
g16
VFoul
p273
sg18
V6-3
p274
sg20
F2.6977218936081702
sg21
VR
sg22
F-0.14720514059286399
sg23
VR
sg24
V429722
p275
sg26
F3.2965513896225787
sg27
F1.4175979724095598
sg28
V3
sg29
I1
sg30
I23
sg31
I0
sg32
V502671
p276
sg34
VS
sa(dp277
g16
VFoul
p278
sg18
g274
sg20
F2.80695923379644
sg21
VR
sg22
F-0.32459644014325501
sg23
VR
sg24
g275
sg26
F3.2965513896225787
sg27
F1.4175979724095598
sg28
V3
sg29
I2
sg30
I23
sg31
I0
sg32
g276
sg34
VS
sa(dp279
g16
VSwinging Strike
p280
sg18
g274
sg20
F1.5139751216501001
sg21
VR
sg22
F1.2456900956217101
sg23
VR
sg24
g275
sg26
F3.2965513896225787
sg27
F1.4175979724095598
sg28
V3
sg29
I3
sg30
I23
sg31
I0
sg32
g276
sg34
VS
sa(dp281
g16
VBall
p282
sg18
V5-10
p283
sg20
F2.9958396389400099
sg21
VR
sg22
F1.08401852964114
sg23
VL
sg24
V429722
p284
sg26
F3.1856558978822562
sg27
F1.5237086191845322
sg28
V3
sg29
I1
sg30
I24
sg31
I0
sg32
V518614
p285
sg34
VB
sa(dp286
g16
VFoul
p287
sg18
g283
sg20
F2.38154425962417
sg21
VR
sg22
F0.814886854588314
sg23
VL
sg24
g284
sg26
F3.034994798520799
sg27
F1.2868190690375911
sg28
V3
sg29
I2
sg30
I24
sg31
I0
sg32
g285
sg34
VS
sa(dp288
g16
VBall
p289
sg18
g283
sg20
F2.9316445433130598
sg21
VR
sg22
F1.4032050390070501
sg23
VL
sg24
g284
sg26
F3.1210880590094447
sg27
F1.6313776561373956
sg28
V3
sg29
I3
sg30
I24
sg31
I0
sg32
g285
sg34
VB
sa(dp290
g16
VBall
p291
sg18
g283
sg20
F1.3863914473626899
sg21
VR
sg22
F0.49749385551505598
sg23
VL
sg24
g284
sg26
F3.1641334855370928
sg27
F1.5667768362771355
sg28
V3
sg29
I4
sg30
I24
sg31
I0
sg32
g285
sg34
VB
sa(dp292
g16
VCalled Strike
p293
sg18
g283
sg20
F2.8922451454967102
sg21
VR
sg22
F-0.32864375171572902
sg23
VL
sg24
g284
sg26
F3.1856558978822562
sg27
F1.5237086191845322
sg28
V3
sg29
I5
sg30
I24
sg31
I0
sg32
g285
sg34
VS
sa(dp294
g16
VCalled Strike
p295
sg18
g283
sg20
F2.5025232940623798
sg21
VR
sg22
F-0.88992044776016999
sg23
VL
sg24
g284
sg26
F3.0995650448187959
sg27
F1.5667768362771355
sg28
V3
sg29
I6
sg30
I24
sg31
I0
sg32
g285
sg34
VS
sa(dp296
g16
VFoul
p297
sg18
V6-0
p298
sg20
F2.8003868600367299
sg21
VR
sg22
F0.236233006134423
sg23
VR
sg24
V429722
p299
sg26
F3.1557132526485461
sg27
F1.3471785697694969
sg28
V3
sg29
I1
sg30
I25
sg31
I0
sg32
V455104
p300
sg34
VS
sa(dp301
g16
VCalled Strike
p302
sg18
g298
sg20
F2.0351305101183002
sg21
VR
sg22
F0.53987199166211497
sg23
VR
sg24
g299
sg26
F3.337946681306569
sg27
F1.6601368008777015
sg28
V3
sg29
I2
sg30
I25
sg31
I0
sg32
g300
sg34
VS
sa(dp303
g16
VBall
p304
sg18
g298
sg20
F2.6653655404802299
sg21
VR
sg22
F-1.41363689704411
sg23
VR
sg24
g299
sg26
F3.337946681306569
sg27
F1.5625280826821353
sg28
V3
sg29
I3
sg30
I25
sg31
I0
sg32
g300
sg34
VB
sa(dp305
g16
VSwinging Strike
p306
sg18
g298
sg20
F2.6649428880506001
sg21
VR
sg22
F1.4260272042318201
sg23
VR
sg24
g299
sg26
F3.1557132526485461
sg27
F1.3471785697694969
sg28
V3
sg29
I4
sg30
I25
sg31
I0
sg32
g300
sg34
VS
sa(dp307
g16
VIn play, run(s)
p308
sg18
V6-4
p309
sg20
F3.0620839444068899
sg21
VR
sg22
F-0.029291339919022299
sg23
VL
sg24
V643327
p310
sg26
F3.2663717942388146
sg27
F1.3773583157188938
sg28
V3
sg29
I1
sg30
I26
sg31
I1
sg32
V596146
p311
sg34
VX
sa(dp312
g16
VCalled Strike
p313
sg18
V6-5
p314
sg20
F2.1815049297617102
sg21
VR
sg22
F-0.35217593703856398
sg23
VL
sg24
V643327
p315
sg26
F3.5089516536388317
sg27
F1.7263010364659763
sg28
V3
sg29
I1
sg30
I27
sg31
I1
sg32
V408045
p316
sg34
VS
sa(dp317
g16
VBall
p318
sg18
g314
sg20
F1.49792874934439
sg21
VR
sg22
F-0.94486047020749797
sg23
VL
sg24
g315
sg26
F3.3482518788753737
sg27
F1.5971029000020565
sg28
V3
sg29
I2
sg30
I27
sg31
I1
sg32
g316
sg34
VB
sa(dp319
g16
VBall
p320
sg18
g314
sg20
F-0.28164483106131799
sg21
VR
sg22
F2.2744993317050999
sg23
VL
sg24
g315
sg26
F3.3482518788753737
sg27
F1.5755691745888285
sg28
V3
sg29
I3
sg30
I27
sg31
I1
sg32
g316
sg34
VB
sa(dp321
g16
VFoul
p322
sg18
g314
sg20
F1.9009756589621101
sg21
VR
sg22
F-0.024233897787438799
sg23
VL
sg24
g315
sg26
F3.3267309820679429
sg27
F1.4678975359165065
sg28
V3
sg29
I4
sg30
I27
sg31
I1
sg32
g316
sg34
VS
sa(dp323
g16
VBall
p324
sg18
g314
sg20
F1.01988863689076
sg21
VR
sg22
F-0.43223956041099998
sg23
VL
sg24
g315
sg26
F3.3267309820679429
sg27
F1.5971029000020565
sg28
V3
sg29
I5
sg30
I27
sg31
I1
sg32
g316
sg34
VB
sa(dp325
g16
VCalled Strike
p326
sg18
g314
sg20
F1.90228003005585
sg21
VR
sg22
F-0.831974248751157
sg23
VL
sg24
g315
sg26
F3.379832251060499
sg27
F1.5755691745888285
sg28
V3
sg29
I6
sg30
I27
sg31
I1
sg32
g316
sg34
VS
sa(dp327
g16
VBall
p328
sg18
V6-4
p329
sg20
F1.5040321857154
sg21
VR
sg22
F-0.92460003545806901
sg23
VR
sg24
V643327
p330
sg26
F3.762966830725567
sg27
F1.6745918735140535
sg28
V3
sg29
I1
sg30
I28
sg31
I1
sg32
V593934
p331
sg34
VB
sa(dp332
g16
VCalled Strike
p333
sg18
g329
sg20
F1.6517729845254601
sg21
VR
sg22
F-0.10985685730231
sg23
VR
sg24
g330
sg26
F3.7529085629863559
sg27
F1.7721954645116895
sg28
V3
sg29
I2
sg30
I28
sg31
I1
sg32
g331
sg34
VS
sa(dp334
g16
VBall
p335
sg18
g329
sg20
F0.63711506140416496
sg21
VR
sg22
F0.26746451437594398
sg23
VR
sg24
g330
sg26
F3.7414497991850837
sg27
F1.7391896778354337
sg28
V3
sg29
I3
sg30
I28
sg31
I1
sg32
g331
sg34
VB
sa(dp336
g16
VFoul
p337
sg18
g329
sg20
F2.4667860216230499
sg21
VR
sg22
F0.90472973498970299
sg23
VR
sg24
g330
sg26
F3.3971500196564932
sg27
F1.4377177987929812
sg28
V3
sg29
I4
sg30
I28
sg31
I1
sg32
g331
sg34
VS
sa(dp338
g16
VSwinging Strike
p339
sg18
g329
sg20
F1.4672423545342499
sg21
VR
sg22
F1.15326419996742
sg23
VR
sg24
g330
sg26
F3.3971500196564932
sg27
F1.4377177987929812
sg28
V3
sg29
I5
sg30
I28
sg31
I1
sg32
g331
sg34
VS
sa(dp340
g16
VBall
p341
sg18
V6-1
p342
sg20
F3.22933023725043
sg21
VR
sg22
F-1.50022906668717
sg23
VL
sg24
V643327
p343
sg26
F3.3161900458032747
sg27
F1.5883106436650039
sg28
V3
sg29
I1
sg30
I29
sg31
I1
sg32
V592696
p344
sg34
VB
sa(dp345
g16
VIn play, no out
p346
sg18
g342
sg20
F2.1449397999372599
sg21
VR
sg22
F0.25924778790289899
sg23
VL
sg24
g343
sg26
F2.9947553033494501
sg27
F1.2868190690375911
sg28
V3
sg29
I2
sg30
I29
sg31
I1
sg32
g344
sg34
VX
sa(dp347
g16
VCalled Strike
p348
sg18
V5-10
p349
sg20
F1.9838067180030701
sg21
VR
sg22
F-0.103997182660982
sg23
VL
sg24
V643327
p350
sg26
F3.2242582580794164
sg27
F1.5853371555616036
sg28
V3
sg29
I1
sg30
I30
sg31
I1
sg32
V500871
p351
sg34
VS
sa(dp352
g16
VFoul
p353
sg18
g349
sg20
F1.5697894205685401
sg21
VR
sg22
F-0.13388583756276901
sg23
VL
sg24
g350
sg26
F2.9444559270293809
sg27
F1.1761599537951568
sg28
V3
sg29
I2
sg30
I30
sg31
I1
sg32
g351
sg34
VS
sa(dp354
g16
VSwinging Strike (Blocked)
p355
sg18
g349
sg20
F-0.437734732354847
sg21
VR
sg22
F0.96601871127388195
sg23
VL
sg24
g350
sg26
F2.9444559270293809
sg27
F1.1761599537951568
sg28
V3
sg29
I3
sg30
I30
sg31
I1
sg32
g351
sg34
VS
sa(dp356
g16
VBall
p357
sg18
V6-2
p358
sg20
F3.6049937314572098
sg21
VR
sg22
F-0.38718068145796802
sg23
VR
sg24
V429722
p359
sg26
F3.4977486169942509
sg27
F1.6731768198521522
sg28
V4
sg29
I1
sg30
I31
sg31
I0
sg32
V592273
p360
sg34
VB
sa(dp361
g16
VSwinging Strike
p362
sg18
g358
sg20
F3.2454141778711398
sg21
VR
sg22
F0.32929806527735
sg23
VR
sg24
g359
sg26
F3.4776289001415179
sg27
F1.4578376238684285
sg28
V4
sg29
I2
sg30
I31
sg31
I0
sg32
g360
sg34
VS
sa(dp363
g16
VFoul
p364
sg18
g358
sg20
F3.0605790565931801
sg21
VR
sg22
F-0.25693184232968902
sg23
VR
sg24
g359
sg26
F3.4776289001415179
sg27
F1.4578376238684285
sg28
V4
sg29
I3
sg30
I31
sg31
I0
sg32
g360
sg34
VS
sa(dp365
g16
VBall
p366
sg18
g358
sg20
F0.71461810019372196
sg21
VR
sg22
F1.17882239108332
sg23
VR
sg24
g359
sg26
F3.6483795251285969
sg27
F1.6516438037078274
sg28
V4
sg29
I4
sg30
I31
sg31
I0
sg32
g360
sg34
VB
sa(dp367
g16
VSwinging Strike
p368
sg18
g358
sg20
F3.9023969239104899
sg21
VR
sg22
F-0.16987682772610499
sg23
VR
sg24
g359
sg26
F3.4776289001415179
sg27
F1.4578376238684285
sg28
V4
sg29
I5
sg30
I31
sg31
I0
sg32
g360
sg34
VS
sa(dp369
g16
VCalled Strike
p370
sg18
V6-1
p371
sg20
F2.5904845104774901
sg21
VR
sg22
F0.27461793184119199
sg23
VL
sg24
V429722
p372
sg26
F3.5318719977863537
sg27
F1.66736380496301
sg28
V4
sg29
I1
sg30
I32
sg31
I0
sg32
V606466
p373
sg34
VS
sa(dp374
g16
VBall
p375
sg18
g371
sg20
F4.4497095620493097
sg21
VR
sg22
F0.30850009220776098
sg23
VL
sg24
g372
sg26
F3.5204118324050953
sg27
F1.5912893892395914
sg28
V4
sg29
I2
sg30
I32
sg31
I0
sg32
g373
sg34
VB
sa(dp376
g16
VIn play, out(s)
p377
sg18
g371
sg20
F2.12175522519704
sg21
VR
sg22
F0.16462139457726299
sg23
VL
sg24
g372
sg26
F3.5843225674304122
sg27
F1.6335998401148686
sg28
V4
sg29
I3
sg30
I32
sg31
I0
sg32
g373
sg34
VX
sa(dp378
g16
VBall
p379
sg18
V5-10
p380
sg20
F3.7746132649196702
sg21
VR
sg22
F0.81278518729368898
sg23
VL
sg24
V429722
p381
sg26
F3.1454190281811023
sg27
F1.574003045411942
sg28
V4
sg29
I1
sg30
I33
sg31
I0
sg32
V453923
p382
sg34
VB
sa(dp383
g16
VIn play, out(s)
p384
sg18
g380
sg20
F2.7873934725415399
sg21
VR
sg22
F0.238336242812521
sg23
VL
sg24
g381
sg26
F3.0249349252176927
sg27
F1.3371186537972832
sg28
V4
sg29
I2
sg30
I33
sg31
I0
sg32
g382
sg34
VX
sa(dp385
g16
VBall
p386
sg18
V6-2
p387
sg20
F1.7917408378894399
sg21
VR
sg22
F1.85005125059052
sg23
VR
sg24
V643327
p388
sg26
F3.0953540314704355
sg27
F1.216399636643672
sg28
V4
sg29
I1
sg30
I34
sg31
I1
sg32
V621439
p389
sg34
VB
sa(dp390
g16
VBall
p391
sg18
g387
sg20
F0.65695644167841605
sg21
VR
sg22
F1.54214158918325
sg23
VR
sg24
g388
sg26
F3.3105755383981688
sg27
F1.5825025897008729
sg28
V4
sg29
I2
sg30
I34
sg31
I1
sg32
g389
sg34
VB
sa(dp392
g16
VBall
p393
sg18
g387
sg20
F2.4805696717326899
sg21
VR
sg22
F1.43272441067955
sg23
VR
sg24
g388
sg26
F3.1814450415340261
sg27
F1.4963659389016257
sg28
V4
sg29
I3
sg30
I34
sg31
I1
sg32
g389
sg34
VB
sa(dp394
g16
VCalled Strike
p395
sg18
g387
sg20
F2.26089797830141
sg21
VR
sg22
F0.88612769234353705
sg23
VR
sg24
g388
sg26
F3.1068173073385097
sg27
F1.4963659389016257
sg28
V4
sg29
I4
sg30
I34
sg31
I1
sg32
g389
sg34
VS
sa(dp396
g16
VSwinging Strike
p397
sg18
g387
sg20
F2.0454795531622101
sg21
VR
sg22
F1.3353635209186401
sg23
VR
sg24
g388
sg26
F3.0745709153354568
sg27
F1.205568995741416
sg28
V4
sg29
I5
sg30
I34
sg31
I1
sg32
g389
sg34
VS
sa(dp398
g16
VIn play, run(s)
p399
sg18
g387
sg20
F2.9986882498105398
sg21
VR
sg22
F0.0010119026119498999
sg23
VR
sg24
g388
sg26
F3.0752342884614521
sg27
F1.2063397164228462
sg28
V4
sg29
I6
sg30
I34
sg31
I1
sg32
g389
sg34
VX
sa(dp400
g16
VCalled Strike
p401
sg18
V5-11
p402
sg20
F2.46422200325078
sg21
VR
sg22
F-0.52702811975459696
sg23
VL
sg24
V643327
p403
sg26
F3.449998685658187
sg27
F1.7075985833593066
sg28
V4
sg29
I1
sg30
I35
sg31
I1
sg32
V593871
p404
sg34
VS
sa(dp405
g16
VBall
p406
sg18
g402
sg20
F0.993537296312899
sg21
VR
sg22
F0.42018077316422803
sg23
VL
sg24
g403
sg26
F3.3968993783758989
sg27
F1.568340143838391
sg28
V4
sg29
I2
sg30
I35
sg31
I1
sg32
g404
sg34
VB
sa(dp407
g16
VBall
p408
sg18
g402
sg20
F1.34053351455494
sg21
VR
sg22
F0.18300551928835801
sg23
VL
sg24
g403
sg26
F3.3753789349966254
sg27
F1.7406048649853219
sg28
V4
sg29
I3
sg30
I35
sg31
I1
sg32
g404
sg34
VB
sa(dp409
g16
VFoul
p410
sg18
g402
sg20
F2.4046044442072998
sg21
VR
sg22
F-0.59416579324585395
sg23
VL
sg24
g403
sg26
F3.2462520623468478
sg27
F1.427657885765143
sg28
V4
sg29
I4
sg30
I35
sg31
I1
sg32
g404
sg34
VS
sa(dp411
g16
VFoul
p412
sg18
g402
sg20
F2.1387754073142999
sg21
VR
sg22
F0.40269970151406498
sg23
VL
sg24
g403
sg26
F3.2462520623468478
sg27
F1.427657885765143
sg28
V4
sg29
I5
sg30
I35
sg31
I1
sg32
g404
sg34
VS
sa(dp413
g16
VBall
p414
sg18
g402
sg20
F1.8636277082771999
sg21
VR
sg22
F-0.38218543141787997
sg23
VL
sg24
g403
sg26
F3.2953360962244176
sg27
F1.5577016388816389
sg28
V4
sg29
I6
sg30
I35
sg31
I1
sg32
g404
sg34
VB
sa(dp415
g16
VBall
p416
sg18
g402
sg20
F2.3357311494344999
sg21
VR
sg22
F-1.1936786136750599
sg23
VL
sg24
g403
sg26
F3.3323374464797908
sg27
F1.6329409199746934
sg28
V4
sg29
I7
sg30
I35
sg31
I1
sg32
g404
sg34
VB
sa(dp417
g16
VIn play, out(s)
p418
sg18
V6-3
p419
sg20
F2.0306126401160798
sg21
VR
sg22
F0.15721052002415001
sg23
VL
sg24
V643327
p420
sg26
F3.4776289001415179
sg27
F1.4578376238668653
sg28
V4
sg29
I1
sg30
I36
sg31
I1
sg32
V488771
p421
sg34
VX
sa(dp422
g16
VBall
p423
sg18
V5-11
p424
sg20
F2.9357527347452601
sg21
VR
sg22
F1.3906230770655399
sg23
VR
sg24
V643327
p425
sg26
F2.8623540228534949
sg27
F1.4761161698533911
sg28
V4
sg29
I1
sg30
I37
sg31
I1
sg32
V572821
p426
sg34
VB
sa(dp427
g16
VCalled Strike
p428
sg18
g424
sg20
F3.0287495297125302
sg21
VR
sg22
F-0.20725033373962101
sg23
VR
sg24
g425
sg26
F3.0029677223926683
sg27
F1.4976508225174783
sg28
V4
sg29
I2
sg30
I37
sg31
I1
sg32
g426
sg34
VS
sa(dp429
g16
VBall
p430
sg18
g424
sg20
F2.3979310772206301
sg21
VR
sg22
F1.92329982319147
sg23
VR
sg24
g425
sg26
F3.0560738275432584
sg27
F1.3899755513400009
sg28
V4
sg29
I3
sg30
I37
sg31
I1
sg32
g426
sg34
VB
sa(dp431
g16
VSwinging Strike
p432
sg18
g424
sg20
F0.71834670772651099
sg21
VR
sg22
F1.1951543626522101
sg23
VR
sg24
g425
sg26
F2.7325111427647499
sg27
F1.0445982312883189
sg28
V4
sg29
I4
sg30
I37
sg31
I1
sg32
g426
sg34
VS
sa(dp433
g16
VSwinging Strike (Blocked)
p434
sg18
g424
sg20
F0.36073698014908401
sg21
VR
sg22
F0.482543566436336
sg23
VR
sg24
g425
sg26
F2.7331984572168651
sg27
F1.0453809484107595
sg28
V4
sg29
I5
sg30
I37
sg31
I1
sg32
g426
sg34
VS
sa(dp435
g16
VCalled Strike
p436
sg18
V6-1
p437
sg20
F2.86537780331573
sg21
VR
sg22
F-0.74533656604235199
sg23
VL
sg24
V429722
p438
sg26
F3.6495233737275257
sg27
F1.7204878509011863
sg28
V5
sg29
I1
sg30
I38
sg31
I0
sg32
V444482
p439
sg34
VS
sa(dp440
g16
VIn play, out(s)
p441
sg18
g437
sg20
F2.1139996523185598
sg21
VR
sg22
F0.53237146595616802
sg23
VL
sg24
g438
sg26
F3.3267309820679429
sg27
F1.4075380587264874
sg28
V5
sg29
I2
sg30
I38
sg31
I0
sg32
g439
sg34
VX
sa(dp442
g16
VCalled Strike
p443
sg18
V6-1
p444
sg20
F2.3052747520747401
sg21
VR
sg22
F0.68961399564460801
sg23
VR
sg24
V429722
p445
sg26
F3.3323374464797908
sg27
F1.555301620227894
sg28
V5
sg29
I1
sg30
I39
sg31
I0
sg32
V572041
p446
sg34
VS
sa(dp447
g16
VFoul
p448
sg18
g444
sg20
F2.0107904598637298
sg21
VR
sg22
F0.77051732758724201
sg23
VR
sg24
g445
sg26
F3.2462520623468478
sg27
F1.3069389039227062
sg28
V5
sg29
I2
sg30
I39
sg31
I0
sg32
g446
sg34
VS
sa(dp449
g16
VFoul
p450
sg18
g444
sg20
F2.7922783885012401
sg21
VR
sg22
F-0.0345571612462406
sg23
VR
sg24
g445
sg26
F3.2462520623468478
sg27
F1.3069389039227062
sg28
V5
sg29
I3
sg30
I39
sg31
I0
sg32
g446
sg34
VS
sa(dp451
g16
VBall
p452
sg18
g444
sg20
F0.90223932657319506
sg21
VR
sg22
F1.3363203907052701
sg23
VR
sg24
g445
sg26
F3.4614595050379009
sg27
F1.6299612714914957
sg28
V5
sg29
I4
sg30
I39
sg31
I0
sg32
g446
sg34
VB
sa(dp453
g16
VIn play, out(s)
p454
sg18
g444
sg20
F2.5976203533005702
sg21
VR
sg22
F0.0024962656175112601
sg23
VR
sg24
g445
sg26
F3.2462520623468478
sg27
F1.3069389039227062
sg28
V5
sg29
I5
sg30
I39
sg31
I0
sg32
g446
sg34
VX
sa(dp455
g16
VIn play, out(s)
p456
sg18
V6-3
p457
sg20
F1.8866800111647699
sg21
VR
sg22
F-0.224342751426135
sg23
VL
sg24
V429722
p458
sg26
F3.3870901581244084
sg27
F1.4175979724095598
sg28
V5
sg29
I1
sg30
I40
sg31
I0
sg32
V571875
p459
sg34
VX
sa(dp460
g16
VCalled Strike
p461
sg18
V6-4
p462
sg20
F2.8388349245226601
sg21
VR
sg22
F-0.51560323728972601
sg23
VL
sg24
V643327
p463
sg26
F3.3739770852915285
sg27
F1.5826460378180514
sg28
V5
sg29
I1
sg30
I41
sg31
I1
sg32
V596146
p464
sg34
VS
sa(dp465
g16
VBall
p466
sg18
g462
sg20
F0.42529501648477303
sg21
VR
sg22
F0.88379216739168098
sg23
VL
sg24
g463
sg26
F3.4600577075982102
sg27
F1.6142385805487578
sg28
V5
sg29
I2
sg30
I41
sg31
I1
sg32
g464
sg34
VB
sa(dp467
g16
VBall
p468
sg18
g462
sg20
F3.4315229499470901
sg21
VR
sg22
F-1.3029638351827699
sg23
VL
sg24
g463
sg26
F3.4170177976039113
sg27
F1.6142385805487578
sg28
V5
sg29
I3
sg30
I41
sg31
I1
sg32
g464
sg34
VB
sa(dp469
g16
VBall
p470
sg18
g462
sg20
F1.8519299020861399
sg21
VR
sg22
F-1.7522048920707001
sg23
VL
sg24
g463
sg26
F3.4385378528886079
sg27
F1.7649679188285461
sg28
V5
sg29
I4
sg30
I41
sg31
I1
sg32
g464
sg34
VB
sa(dp471
g16
VCalled Strike
p472
sg18
g462
sg20
F2.7007512461937702
sg21
VR
sg22
F0.26270290703777199
sg23
VL
sg24
g463
sg26
F3.4600577075982102
sg27
F1.7333774378521269
sg28
V5
sg29
I5
sg30
I41
sg31
I1
sg32
g464
sg34
VS
sa(dp473
g16
VFoul
p474
sg18
g462
sg20
F2.0703055335379301
sg21
VR
sg22
F0.093427116706424299
sg23
VL
sg24
g463
sg26
F3.2663717942388146
sg27
F1.3773583157188938
sg28
V5
sg29
I6
sg30
I41
sg31
I1
sg32
g464
sg34
VS
sa(dp475
g16
VIn play, out(s)
p476
sg18
g462
sg20
F2.6816356331473798
sg21
VR
sg22
F-0.0252763369740075
sg23
VL
sg24
g463
sg26
F3.2663717942388146
sg27
F1.3773583157188938
sg28
V5
sg29
I7
sg30
I41
sg31
I1
sg32
g464
sg34
VX
sa(dp477
g16
VBall
p478
sg18
V6-5
p479
sg20
F1.8008669222254501
sg21
VR
sg22
F-0.17881952879433899
sg23
VL
sg24
V643327
p480
sg26
F3.3708745248667924
sg27
F1.6941405193772212
sg28
V5
sg29
I1
sg30
I42
sg31
I1
sg32
V408045
p481
sg34
VB
sa(dp482
g16
VCalled Strike
p483
sg18
g479
sg20
F2.9210748010181602
sg21
VR
sg22
F-0.325118361096016
sg23
VL
sg24
g480
sg26
F3.4659126550772328
sg27
F1.7263010364659763
sg28
V5
sg29
I2
sg30
I42
sg31
I1
sg32
g481
sg34
VS
sa(dp484
g16
VBall
p485
sg18
g479
sg20
F1.0483254269597699
sg21
VR
sg22
F-0.656909780422263
sg23
VL
sg24
g480
sg26
F3.3912930707285227
sg27
F1.5971029000020565
sg28
V5
sg29
I3
sg30
I42
sg31
I1
sg32
g481
sg34
VB
sa(dp486
g16
VFoul
p487
sg18
g479
sg20
F2.9072309895670601
sg21
VR
sg22
F-0.35292172039679698
sg23
VL
sg24
g480
sg26
F3.3267309820679429
sg27
F1.4678975359165065
sg28
V5
sg29
I4
sg30
I42
sg31
I1
sg32
g481
sg34
VS
sa(dp488
g16
VBall
p489
sg18
g479
sg20
F0.91411423943958903
sg21
VR
sg22
F0.676199866926257
sg23
VL
sg24
g480
sg26
F3.4128133657798543
sg27
F1.5325011214489237
sg28
V5
sg29
I5
sg30
I42
sg31
I1
sg32
g481
sg34
VB
sa(dp490
g16
VSwinging Strike
p491
sg18
g479
sg20
F2.3935838735348298
sg21
VR
sg22
F-0.15678057956644301
sg23
VL
sg24
g480
sg26
F3.3267309820679429
sg27
F1.4678975359165065
sg28
V5
sg29
I6
sg30
I42
sg31
I1
sg32
g481
sg34
VS
sa(dp492
g16
VCalled Strike
p493
sg18
V6-4
p494
sg20
F2.6383198499091698
sg21
VR
sg22
F0.067549866235432396
sg23
VR
sg24
V643327
p495
sg26
F3.6883565855235005
sg27
F1.7721954645116895
sg28
V5
sg29
I1
sg30
I43
sg31
I1
sg32
V593934
p496
sg34
VS
sa(dp497
g16
VIn play, no out
p498
sg18
g494
sg20
F2.8047627960801802
sg21
VR
sg22
F-1.0452032193112299
sg23
VR
sg24
g495
sg26
F3.3971500196564932
sg27
F1.4377177987929812
sg28
V5
sg29
I2
sg30
I43
sg31
I1
sg32
g496
sg34
VX
sa(dp499
g16
VBall
p500
sg18
V6-1
p501
sg20
F1.5300420961955701
sg21
VR
sg22
F0.32135418378506497
sg23
VL
sg24
V643327
p502
sg26
F3.2731474539139853
sg27
F1.7605738753393467
sg28
V5
sg29
I1
sg30
I44
sg31
I1
sg32
V592696
p503
sg34
VB
sa(dp504
g16
VBall
p505
sg18
g501
sg20
F2.5789876294572598
sg21
VR
sg22
F-1.07969303304264
sg23
VL
sg24
g502
sg26
F3.1655374636811189
sg27
F1.5237086191845322
sg28
V5
sg29
I2
sg30
I44
sg31
I1
sg32
g503
sg34
VB
sa(dp506
g16
VIn play, out(s)
p507
sg18
g501
sg20
F2.33754501367335
sg21
VR
sg22
F0.56476844210205301
sg23
VL
sg24
g502
sg26
F2.9947553033494501
sg27
F1.2868190690375911
sg28
V5
sg29
I3
sg30
I44
sg31
I1
sg32
g503
sg34
VX
sa(dp508
g16
VFoul
p509
sg18
V6-3
p510
sg20
F2.3019729848909001
sg21
VR
sg22
F0.25050836262006398
sg23
VR
sg24
V429722
p511
sg26
F3.2959033064939902
sg27
F1.4168428700056523
sg28
V6
sg29
I1
sg30
I45
sg31
I0
sg32
V502671
p512
sg34
VS
sa(dp513
g16
VCalled Strike
p514
sg18
g510
sg20
F1.8215836138603301
sg21
VR
sg22
F-0.67258833963213305
sg23
VR
sg24
g511
sg26
F3.7529085629863559
sg27
F1.7836690377311442
sg28
V6
sg29
I2
sg30
I45
sg31
I0
sg32
g512
sg34
VS
sa(dp515
g16
VIn play, no out
p516
sg18
g510
sg20
F2.7216578779746801
sg21
VR
sg22
F0.90092557420736996
sg23
VR
sg24
g511
sg26
F3.2965513896225787
sg27
F1.4175979724095598
sg28
V6
sg29
I3
sg30
I45
sg31
I0
sg32
g512
sg34
VX
sa(dp517
g16
VBall
p518
sg18
V5-10
p519
sg20
F1.81128139698348
sg21
VR
sg22
F1.1839159573858999
sg23
VL
sg24
V429722
p520
sg26
F3.0995650448187959
sg27
F1.5237086191845322
sg28
V6
sg29
I1
sg30
I46
sg31
I0
sg32
V518614
p521
sg34
VB
sa(dp522
g16
VBall
p523
sg18
g519
sg20
F1.4037072503375501
sg21
VR
sg22
F0.73182589287955702
sg23
VL
sg24
g520
sg26
F3.1641334855370928
sg27
F1.5667768362771355
sg28
V6
sg29
I2
sg30
I46
sg31
I0
sg32
g521
sg34
VB
sa(dp524
g16
VCalled Strike
p525
sg18
g519
sg20
F2.2099095039383698
sg21
VR
sg22
F-0.12956049673749401
sg23
VL
sg24
g520
sg26
F3.1856558978822562
sg27
F1.5883106436650039
sg28
V6
sg29
I3
sg30
I46
sg31
I0
sg32
g521
sg34
VS
sa(dp526
g16
VBall
p527
sg18
g519
sg20
F2.2345708099512902
sg21
VR
sg22
F-0.993348169129466
sg23
VL
sg24
g520
sg26
F3.1210880590094447
sg27
F1.6529108612285768
sg28
V6
sg29
I4
sg30
I46
sg31
I0
sg32
g521
sg34
VB
sa(dp528
g16
VBall
p529
sg18
g519
sg20
F2.6473445507128401
sg21
VR
sg22
F-0.87348479042166005
sg23
VL
sg24
g520
sg26
F3.1641334855370928
sg27
F1.5667768362771355
sg28
V6
sg29
I5
sg30
I46
sg31
I0
sg32
g521
sg34
VB
sa(dp530
g16
VIn play, out(s)
p531
sg18
V6-0
p532
sg20
F2.8890787128707101
sg21
VR
sg22
F-0.391667258441666
sg23
VR
sg24
V429722
p533
sg26
F3.1557132526485461
sg27
F1.3471785697694969
sg28
V6
sg29
I1
sg30
I47
sg31
I0
sg32
V455104
p534
sg34
VX
sa(dp535
g16
VFoul
p536
sg18
V6-2
p537
sg20
F2.1394091176896302
sg21
VR
sg22
F-0.29139703091716301
sg23
VR
sg24
V429722
p538
sg26
F3.4776289001415179
sg27
F1.4578376238684285
sg28
V6
sg29
I1
sg30
I48
sg31
I0
sg32
V592273
p539
sg34
VS
sa(dp540
g16
VIn play, out(s)
p541
sg18
g537
sg20
F2.2283282314077999
sg21
VR
sg22
F0.73956466840461998
sg23
VR
sg24
g538
sg26
F3.4776289001415179
sg27
F1.4578376238684285
sg28
V6
sg29
I2
sg30
I48
sg31
I0
sg32
g539
sg34
VX
sa(dp542
g16
VFoul
p543
sg18
V6-1
p544
sg20
F3.5175525804485899
sg21
VR
sg22
F0.37798883278578299
sg23
VL
sg24
V429722
p545
sg26
F3.3267309820679429
sg27
F1.3974781447183062
sg28
V6
sg29
I1
sg30
I49
sg31
I0
sg32
V606466
p546
sg34
VS
sa(dp547
g16
VBall In Dirt
p548
sg18
g544
sg20
F0.34833865065504999
sg21
VR
sg22
F0.34134072584541397
sg23
VL
sg24
g545
sg26
F3.5849685055730802
sg27
F1.6343563461694544
sg28
V6
sg29
I2
sg30
I49
sg31
I0
sg32
g546
sg34
VB
sa(dp549
g16
VFoul
p550
sg18
g544
sg20
F2.5459295942066702
sg21
VR
sg22
F0.69812535601297099
sg23
VL
sg24
g545
sg26
F3.3267309820679429
sg27
F1.3974781447183062
sg28
V6
sg29
I3
sg30
I49
sg31
I0
sg32
g546
sg34
VS
sa(dp551
g16
VIn play, out(s)
p552
sg18
g544
sg20
F3.28233456850313
sg21
VR
sg22
F1.32849906843279
sg23
VL
sg24
g545
sg26
F3.3267309820679429
sg27
F1.3974781447183062
sg28
V6
sg29
I4
sg30
I49
sg31
I0
sg32
g546
sg34
VX
sa(dp553
g16
VFoul
p554
sg18
V5-10
p555
sg20
F1.1123518342309799
sg21
VR
sg22
F-0.19977016723543101
sg23
VL
sg24
V643327
p556
sg26
F2.9444559270293809
sg27
F1.1761599537951568
sg28
V6
sg29
I1
sg30
I50
sg31
I1
sg32
V500871
p557
sg34
VS
sa(dp558
g16
VCalled Strike
p559
sg18
g555
sg20
F2.2519111435825701
sg21
VR
sg22
F0.13736380093974099
sg23
VL
sg24
g556
sg26
F3.0305525632091701
sg27
F1.4130608529137945
sg28
V6
sg29
I2
sg30
I50
sg31
I1
sg32
g557
sg34
VS
sa(dp560
g16
VFoul
p561
sg18
g555
sg20
F1.0437328666777801
sg21
VR
sg22
F-0.62902444025364002
sg23
VL
sg24
g556
sg26
F2.9444559270293809
sg27
F1.1761599537951568
sg28
V6
sg29
I3
sg30
I50
sg31
I1
sg32
g557
sg34
VS
sa(dp562
g16
VSwinging Strike (Blocked)
p563
sg18
g555
sg20
F0.67361603525149005
sg21
VR
sg22
F0.15148824300036201
sg23
VL
sg24
g556
sg26
F2.9444559270293809
sg27
F1.1761599537951568
sg28
V6
sg29
I4
sg30
I50
sg31
I1
sg32
g557
sg34
VS
sa(dp564
g16
VBall
p565
sg18
V6-2
p566
sg20
F2.2891871400725998
sg21
VR
sg22
F1.5641992846673201
sg23
VR
sg24
V643327
p567
sg26
F3.3105755383981688
sg27
F1.6040362504700738
sg28
V6
sg29
I1
sg30
I51
sg31
I1
sg32
V621439
p568
sg34
VB
sa(dp569
g16
VCalled Strike
p570
sg18
g566
sg20
F2.3835486310444498
sg21
VR
sg22
F0.93109566993039095
sg23
VR
sg24
g567
sg26
F3.300516604689129
sg27
F1.6901688859164139
sg28
V6
sg29
I2
sg30
I51
sg31
I1
sg32
g568
sg34
VS
sa(dp571
g16
VBall
p572
sg18
g566
sg20
F0.98992790194999902
sg21
VR
sg22
F0.45942190999627702
sg23
VR
sg24
g567
sg26
F3.2675328418433267
sg27
F1.517900402765207
sg28
V6
sg29
I3
sg30
I51
sg31
I1
sg32
g568
sg34
VB
sa(dp573
g16
VFoul
p574
sg18
g566
sg20
F2.93721385459193
sg21
VR
sg22
F1.3198657690946201
sg23
VR
sg24
g567
sg26
F3.0752342884614521
sg27
F1.2063397164228462
sg28
V6
sg29
I4
sg30
I51
sg31
I1
sg32
g568
sg34
VS
sa(dp575
g16
VIn play, no out
p576
sg18
g566
sg20
F1.13843772436682
sg21
VR
sg22
F-0.33844735945089299
sg23
VR
sg24
g567
sg26
F3.0752342884614521
sg27
F1.2063397164228462
sg28
V6
sg29
I5
sg30
I51
sg31
I1
sg32
g568
sg34
VX
sa(dp577
g16
VBall
p578
sg18
V5-11
p579
sg20
F0.38116205046347801
sg21
VL
sg22
F-0.71765367480716102
sg23
VR
sg24
V407822
p580
sg26
F3.353858291030491
sg27
F1.5898739366524381
sg28
V6
sg29
I1
sg30
I52
sg31
I1
sg32
V593871
p581
sg34
VB
sa(dp582
g16
VBall
p583
sg18
g579
sg20
F2.34922500930056
sg21
VL
sg22
F1.1951530191711499
sg23
VR
sg24
g580
sg26
F3.3108164013381938
sg27
F1.6114075286967662
sg28
V6
sg29
I2
sg30
I52
sg31
I1
sg32
g581
sg34
VB
sa(dp584
g16
VBall
p585
sg18
g579
sg20
F1.48051376155294
sg21
VL
sg22
F0.69928057423835599
sg23
VR
sg24
g580
sg26
F3.4399396633947248
sg27
F1.676007100247773
sg28
V6
sg29
I3
sg30
I52
sg31
I1
sg32
g581
sg34
VB
sa(dp586
g16
VCalled Strike
p587
sg18
g579
sg20
F1.9563802257446099
sg21
VL
sg22
F-0.36413401034972498
sg23
VR
sg24
g580
sg26
F3.4499986856566238
sg27
F1.6860658881406323
sg28
V6
sg29
I4
sg30
I52
sg31
I1
sg32
g581
sg34
VS
sa(dp588
g16
VIn play, run(s)
p589
sg18
g579
sg20
F2.5613053974945199
sg21
VL
sg22
F0.63415053779457298
sg23
VR
sg24
g580
sg26
F3.2462520623468478
sg27
F1.427657885765143
sg28
V6
sg29
I5
sg30
I52
sg31
I1
sg32
g581
sg34
VX
sa(dp590
g16
VBall
p591
sg18
V6-3
p592
sg20
F0.89454765821705795
sg21
VL
sg22
F-0.73121368308385504
sg23
VL
sg24
V407822
p593
sg26
F3.7358495476567199
sg27
F1.7377746637504785
sg28
V6
sg29
I1
sg30
I53
sg31
I1
sg32
V488771
p594
sg34
VB
sa(dp595
g16
VCalled Strike
p596
sg18
g592
sg20
F1.8396087330776401
sg21
VL
sg22
F0.55860595839601601
sg23
VL
sg24
g593
sg26
F3.7573666313919816
sg27
F1.7808388892682956
sg28
V6
sg29
I2
sg30
I53
sg31
I1
sg32
g594
sg34
VS
sa(dp597
g16
VFoul
p598
sg18
g592
sg20
F2.0084529879798301
sg21
VL
sg22
F-0.080098118089031695
sg23
VL
sg24
g593
sg26
F3.4776289001415179
sg27
F1.4578376238668653
sg28
V6
sg29
I3
sg30
I53
sg31
I1
sg32
g594
sg34
VS
sa(dp599
g16
VIn play, out(s)
p600
sg18
g592
sg20
F2.6575827128352998
sg21
VL
sg22
F0.16063659560524499
sg23
VL
sg24
g593
sg26
F3.4776289001415179
sg27
F1.4578376238668653
sg28
V6
sg29
I4
sg30
I53
sg31
I1
sg32
g594
sg34
VX
sa(dp601
g16
VBall In Dirt
p602
sg18
V6-4
p603
sg20
F0.14635360532356601
sg21
VL
sg22
F-0.93121832996494203
sg23
VL
sg24
V407822
p604
sg26
F3.3954975417393527
sg27
F1.5711712484827345
sg28
V6
sg29
I1
sg30
I55
sg31
I1
sg32
V596146
p605
sg34
VB
sa(dp606
g16
VSwinging Strike
p607
sg18
g603
sg20
F1.9869002960326601
sg21
VL
sg22
F0.10652212052429599
sg23
VL
sg24
g604
sg26
F3.2663717942388146
sg27
F1.3773583157188938
sg28
V6
sg29
I2
sg30
I55
sg31
I1
sg32
g605
sg34
VS
sa(dp608
g16
VIn play, out(s)
p609
sg18
g603
sg20
F3.4839890851781701
sg21
VL
sg22
F-0.77983337212855097
sg23
VL
sg24
g604
sg26
F3.2663717942388146
sg27
F1.3773583157188938
sg28
V6
sg29
I3
sg30
I55
sg31
I1
sg32
g605
sg34
VX
sa(dp610
g16
VCalled Strike
p611
sg18
V5-10
p612
sg20
F1.8956003804485
sg21
VR
sg22
F0.022550443017568401
sg23
VL
sg24
V429722
p613
sg26
F3.1124326582127679
sg27
F1.6386036631551022
sg28
V7
sg29
I1
sg30
I56
sg31
I0
sg32
V453923
p614
sg34
VS
sa(dp615
g16
VBall
p616
sg18
g612
sg20
F3.8701370276005802
sg21
VR
sg22
F-0.46552204109543699
sg23
VL
sg24
g613
sg26
F3.0593266748809995
sg27
F1.444796389049813
sg28
V7
sg29
I2
sg30
I56
sg31
I0
sg32
g614
sg34
VB
sa(dp617
g16
VBall
p618
sg18
g612
sg20
F1.78466530240877
sg21
VR
sg22
F1.0790680066737599
sg23
VL
sg24
g613
sg26
F3.1023732527711019
sg27
F1.6601368008761312
sg28
V7
sg29
I3
sg30
I56
sg31
I0
sg32
g614
sg34
VB
sa(dp619
g16
VBall
p620
sg18
g612
sg20
F1.38809867684821
sg21
VR
sg22
F-0.16283137319579699
sg23
VL
sg24
g613
sg26
F3.2099861866940671
sg27
F1.5955367854258071
sg28
V7
sg29
I4
sg30
I56
sg31
I0
sg32
g614
sg34
VB
sa(dp621
g16
VCalled Strike
p622
sg18
g612
sg20
F2.8445487691704798
sg21
VR
sg22
F-0.24350659239487901
sg23
VL
sg24
g613
sg26
F3.1124326582127679
sg27
F1.5955367854258071
sg28
V7
sg29
I5
sg30
I56
sg31
I0
sg32
g614
sg34
VS
sa(dp623
g16
VFoul
p624
sg18
g612
sg20
F2.5148075398374599
sg21
VR
sg22
F-0.0089421082836518093
sg23
VL
sg24
g613
sg26
F3.0249349252176927
sg27
F1.3371186537972832
sg28
V7
sg29
I6
sg30
I56
sg31
I0
sg32
g614
sg34
VS
sa(dp625
g16
VBall
p626
sg18
g612
sg20
F4.6368602829154701
sg21
VR
sg22
F0.15445668957030501
sg23
VL
sg24
g613
sg26
F3.1454190281811023
sg27
F1.4663313337272115
sg28
V7
sg29
I7
sg30
I56
sg31
I0
sg32
g614
sg34
VB
sa(dp627
g16
VBall
p628
sg18
V6-1
p629
sg20
F4.6130359228383098
sg21
VR
sg22
F-0.185373740569135
sg23
VL
sg24
V429722
p630
sg26
F3.6064869955114816
sg27
F1.7520786386278857
sg28
V7
sg29
I1
sg30
I57
sg31
I0
sg32
V444482
p631
sg34
VB
sa(dp632
g16
VIn play, no out
p633
sg18
g629
sg20
F2.5698522245536699
sg21
VR
sg22
F0.034150621587397699
sg23
VL
sg24
g630
sg26
F3.3267309820679429
sg27
F1.4075380587264874
sg28
V7
sg29
I2
sg30
I57
sg31
I0
sg32
g631
sg34
VX
sa(dp634
g16
VCalled Strike
p635
sg18
V6-1
p636
sg20
F3.0666120196874598
sg21
VR
sg22
F0.704317231364194
sg23
VR
sg24
V657610
p637
sg26
F3.3108164013381938
sg27
F1.6845020949934195
sg28
V7
sg29
I1
sg30
I58
sg31
I0
sg32
V572041
p638
sg34
VS
sa(dp639
g16
VIn play, out(s)
p640
sg18
g636
sg20
F3.1494118142236802
sg21
VR
sg22
F-0.463761294258836
sg23
VR
sg24
g637
sg26
F3.2456005181182803
sg27
F1.3061756385019976
sg28
V7
sg29
I2
sg30
I58
sg31
I0
sg32
g638
sg34
VX
sa(dp641
g16
VBall
p642
sg18
V6-3
p643
sg20
F1.1473472237198199
sg21
VL
sg22
F-0.065968559432117296
sg23
VL
sg24
V573124
p644
sg26
F3.5606479091079422
sg27
F1.5898739366524381
sg28
V7
sg29
I1
sg30
I59
sg31
I0
sg32
V571875
p645
sg34
VB
sa(dp646
g16
VCalled Strike
p647
sg18
g643
sg20
F1.97602859886099
sg21
VL
sg22
F-0.33025989431642899
sg23
VL
sg24
g644
sg26
F3.4860312559562061
sg27
F1.6659483120288812
sg28
V7
sg29
I2
sg30
I59
sg31
I0
sg32
g645
sg34
VS
sa(dp648
g16
VIn play, out(s)
p649
sg18
g643
sg20
F3.5692865807533201
sg21
VL
sg22
F0.225618737519971
sg23
VL
sg24
g644
sg26
F3.3870901581244084
sg27
F1.4175979724095598
sg28
V7
sg29
I3
sg30
I59
sg31
I0
sg32
g645
sg34
VX
sa(dp650
g16
VCalled Strike
p651
sg18
V6-5
p652
sg20
F1.97806584583968
sg21
VL
sg22
F0.70878083914041501
sg23
VL
sg24
V407822
p653
sg26
F3.336790845561481
sg27
F1.6401697485286419
sg28
V7
sg29
I1
sg30
I60
sg31
I1
sg32
V408045
p654
sg34
VS
sa(dp655
g16
VIn play, no out
p656
sg18
g652
sg20
F2.1552695580309602
sg21
VL
sg22
F-0.289137662784273
sg23
VL
sg24
g653
sg26
F3.3267309820679429
sg27
F1.4678975359165065
sg28
V7
sg29
I2
sg30
I60
sg31
I1
sg32
g654
sg34
VX
sa(dp657
g16
VIn play, run(s)
p658
sg18
V6-4
p659
sg20
F2.9521988927964999
sg21
VR
sg22
F0.27477779407173097
sg23
VR
sg24
V456696
p660
sg26
F3.3971500196564932
sg27
F1.4377177987929812
sg28
V7
sg29
I1
sg30
I61
sg31
I1
sg32
V593934
p661
sg34
VX
sa(dp662
g16
VBall
p663
sg18
V6-1
p664
sg20
F3.7140922596969999
sg21
VR
sg22
F-0.48855175789529598
sg23
VL
sg24
V456696
p665
sg26
F3.1224920633268596
sg27
F1.4591047877144803
sg28
V7
sg29
I1
sg30
I62
sg31
I1
sg32
V592696
p666
sg34
VB
sa(dp667
g16
VSwinging Strike
p668
sg18
g664
sg20
F2.5165260279139998
sg21
VR
sg22
F0.66114575457300195
sg23
VL
sg24
g665
sg26
F2.9947553033494501
sg27
F1.2868190690375911
sg28
V7
sg29
I2
sg30
I62
sg31
I1
sg32
g666
sg34
VS
sa(dp669
g16
VFoul
p670
sg18
g664
sg20
F1.9114352203640399
sg21
VR
sg22
F0.176877614610884
sg23
VL
sg24
g665
sg26
F2.9947553033494501
sg27
F1.2868190690375911
sg28
V7
sg29
I3
sg30
I62
sg31
I1
sg32
g666
sg34
VS
sa(dp671
g16
VFoul
p672
sg18
g664
sg20
F2.9412422919091599
sg21
VR
sg22
F-0.41249399253240099
sg23
VL
sg24
g665
sg26
F2.9940863309820926
sg27
F1.2860543151825681
sg28
V7
sg29
I4
sg30
I62
sg31
I1
sg32
g666
sg34
VS
sa(dp673
g16
VBall
p674
sg18
g664
sg20
F1.3739264380748
sg21
VR
sg22
F-0.065363388602044006
sg23
VL
sg24
g665
sg26
F3.2085820615887641
sg27
F1.6098442502844961
sg28
V7
sg29
I5
sg30
I62
sg31
I1
sg32
g666
sg34
VB
sa(dp675
g16
VFoul
p676
sg18
g664
sg20
F2.2867519735189199
sg21
VR
sg22
F-0.31708972897430099
sg23
VL
sg24
g665
sg26
F2.9947553033494501
sg27
F1.2868190690375911
sg28
V7
sg29
I6
sg30
I62
sg31
I1
sg32
g666
sg34
VS
sa(dp677
g16
VIn play, no out
p678
sg18
g664
sg20
F2.55629766502026
sg21
VR
sg22
F0.31464433111359602
sg23
VL
sg24
g665
sg26
F2.9940863309820926
sg27
F1.2860543151825681
sg28
V7
sg29
I7
sg30
I62
sg31
I1
sg32
g666
sg34
VX
sa(dp679
g16
VBall
p680
sg18
V5-10
p681
sg20
F4.1832367084189404
sg21
VR
sg22
F-1.20501976859268
sg23
VL
sg24
V456696
p682
sg26
F3.1180507792883105
sg27
F1.4992006104781268
sg28
V7
sg29
I1
sg30
I63
sg31
I1
sg32
V500871
p683
sg34
VB
sa(dp684
g16
VFoul
p685
sg18
g681
sg20
F2.2925581674921802
sg21
VR
sg22
F-0.41714581928550598
sg23
VL
sg24
g682
sg26
F2.9444559270293809
sg27
F1.1761599537951568
sg28
V7
sg29
I2
sg30
I63
sg31
I1
sg32
g683
sg34
VS
sa(dp686
g16
VFoul
p687
sg18
g681
sg20
F1.08069768824097
sg21
VR
sg22
F0.73348322331452098
sg23
VL
sg24
g682
sg26
F2.9444559270293809
sg27
F1.1761599537951568
sg28
V7
sg29
I3
sg30
I63
sg31
I1
sg32
g683
sg34
VS
sa(dp688
g16
VIn play, run(s)
p689
sg18
g681
sg20
F2.59438144233226
sg21
VR
sg22
F-0.27550510173777598
sg23
VL
sg24
g682
sg26
F2.9444559270293809
sg27
F1.1761599537951568
sg28
V7
sg29
I4
sg30
I63
sg31
I1
sg32
g683
sg34
VX
sa(dp690
g16
VFoul
p691
sg18
V6-2
p692
sg20
F3.12933556934136
sg21
VR
sg22
F-0.0607915414270008
sg23
VR
sg24
V456696
p693
sg26
F3.0752342884614521
sg27
F1.2063397164228462
sg28
V7
sg29
I1
sg30
I64
sg31
I1
sg32
V621439
p694
sg34
VS
sa(dp695
g16
VBall
p696
sg18
g692
sg20
F2.6379293712718201
sg21
VR
sg22
F1.3462174671424001
sg23
VR
sg24
g693
sg26
F3.3105755383981688
sg27
F1.5825025897008729
sg28
V7
sg29
I2
sg30
I64
sg31
I1
sg32
g694
sg34
VB
sa(dp697
g16
VIn play, out(s)
p698
sg18
g692
sg20
F2.4694475389480002
sg21
VR
sg22
F-0.43404009753980599
sg23
VR
sg24
g693
sg26
F3.0752342884614521
sg27
F1.2063397164228462
sg28
V7
sg29
I3
sg30
I64
sg31
I1
sg32
g694
sg34
VX
sa(dp699
g16
VBall
p700
sg18
V5-11
p701
sg20
F1.9628980508079199
sg21
VR
sg22
F0.932021311280396
sg23
VL
sg24
V456696
p702
sg26
F3.2677737092750192
sg27
F1.6329409199746934
sg28
V7
sg29
I1
sg30
I65
sg31
I1
sg32
V593871
p703
sg34
VB
sa(dp704
g16
VIn play, out(s)
p705
sg18
g701
sg20
F2.2358339648678198
sg21
VR
sg22
F0.079406514916926005
sg23
VL
sg24
g702
sg26
F3.2462520623468478
sg27
F1.427657885765143
sg28
V7
sg29
I2
sg30
I65
sg31
I1
sg32
g703
sg34
VX
sa(dp706
g16
VCalled Strike
p707
sg18
V6-3
p708
sg20
F2.99406787613077
sg21
VR
sg22
F0.51201308703191295
sg23
VL
sg24
V456696
p709
sg26
F3.6497792073224744
sg27
F1.9315573553120657
sg28
V7
sg29
I1
sg30
I66
sg31
I1
sg32
V488771
p710
sg34
VS
sa(dp711
g16
VFoul
p712
sg18
g708
sg20
F2.0879363113056302
sg21
VR
sg22
F1.14067331195788
sg23
VL
sg24
g709
sg26
F3.4776289001415179
sg27
F1.4578376238668653
sg28
V7
sg29
I2
sg30
I66
sg31
I1
sg32
g710
sg34
VS
sa(dp713
g16
VBall
p714
sg18
g708
sg20
F2.47010392079472
sg21
VR
sg22
F-1.3443361359928401
sg23
VL
sg24
g709
sg26
F3.6497792073224744
sg27
F1.7162422498706746
sg28
V7
sg29
I3
sg30
I66
sg31
I1
sg32
g710
sg34
VB
sa(dp715
g16
VFoul
p716
sg18
g708
sg20
F2.6088145366475
sg21
VR
sg22
F0.87102902288783401
sg23
VL
sg24
g709
sg26
F3.4776289001415179
sg27
F1.4578376238668653
sg28
V7
sg29
I4
sg30
I66
sg31
I1
sg32
g710
sg34
VS
sa(dp717
g16
VBall
p718
sg18
g708
sg20
F1.46200802831619
sg21
VR
sg22
F1.7436766405475499
sg23
VL
sg24
g709
sg26
F3.6928147785754888
sg27
F1.7593068768824267
sg28
V7
sg29
I5
sg30
I66
sg31
I1
sg32
g710
sg34
VB
sa(dp719
g16
VSwinging Strike
p720
sg18
g708
sg20
F3.2683316759958698
sg21
VR
sg22
F0.55797504017668997
sg23
VL
sg24
g709
sg26
F3.4776289001415179
sg27
F1.4578376238668653
sg28
V7
sg29
I6
sg30
I66
sg31
I1
sg32
g710
sg34
VS
sa(dp721
g16
VCalled Strike
p722
sg18
V6-3
p723
sg20
F2.3346117121284098
sg21
VL
sg22
F0.68294271862816003
sg23
VR
sg24
V573124
p724
sg26
F3.5807659455096044
sg27
F1.7836690377311442
sg28
V8
sg29
I1
sg30
I67
sg31
I0
sg32
V502671
p725
sg34
VS
sa(dp726
g16
VFoul
p727
sg18
g723
sg20
F2.1749254909414502
sg21
VL
sg22
F-0.47239617330365902
sg23
VR
sg24
g724
sg26
F3.2965513896225787
sg27
F1.4175979724095598
sg28
V8
sg29
I2
sg30
I67
sg31
I0
sg32
g725
sg34
VS
sa(dp728
g16
VBall
p729
sg18
g723
sg20
F1.0072066687140799
sg21
VL
sg22
F-1.3814558932047101
sg23
VR
sg24
g724
sg26
F3.5162091548339021
sg27
F1.5353314002885554
sg28
V8
sg29
I3
sg30
I67
sg31
I0
sg32
g725
sg34
VB
sa(dp730
g16
VIn play, out(s)
p731
sg18
g723
sg20
F2.5055825755352301
sg21
VL
sg22
F-1.0662731879932399
sg23
VR
sg24
g724
sg26
F3.2965513896225787
sg27
F1.4175979724095598
sg28
V8
sg29
I4
sg30
I67
sg31
I0
sg32
g725
sg34
VX
sa(dp732
g16
VCalled Strike
p733
sg18
V5-10
p734
sg20
F2.47083606948219
sg21
VL
sg22
F-0.39085047839661002
sg23
VL
sg24
V573124
p735
sg26
F3.2932649505267193
sg27
F1.6098442502844961
sg28
V8
sg29
I1
sg30
I68
sg31
I0
sg32
V518614
p736
sg34
VS
sa(dp737
g16
VFoul
p738
sg18
g734
sg20
F2.3270316933988999
sg21
VL
sg22
F0.44206703411255799
sg23
VL
sg24
g735
sg26
F3.034994798520799
sg27
F1.2868190690375911
sg28
V8
sg29
I2
sg30
I68
sg31
I0
sg32
g736
sg34
VS
sa(dp739
g16
VBall
p740
sg18
g734
sg20
F3.9283175389418101
sg21
VL
sg22
F-0.24595159042984599
sg23
VL
sg24
g735
sg26
F3.0995650448187959
sg27
F1.4591047877144803
sg28
V8
sg29
I3
sg30
I68
sg31
I0
sg32
g736
sg34
VB
sa(dp741
g16
VBall
p742
sg18
g734
sg20
F0.91446748599050898
sg21
VL
sg22
F-2.4250021215473598
sg23
VL
sg24
g735
sg26
F3.1210880590094447
sg27
F1.6744438655598017
sg28
V8
sg29
I4
sg30
I68
sg31
I0
sg32
g736
sg34
VB
sa(dp743
g16
VFoul
p744
sg18
g734
sg20
F2.2247166575966699
sg21
VL
sg22
F0.48658793308036602
sg23
VL
sg24
g735
sg26
F3.034994798520799
sg27
F1.2868190690375911
sg28
V8
sg29
I5
sg30
I68
sg31
I0
sg32
g736
sg34
VS
sa(dp745
g16
VCalled Strike
p746
sg18
g734
sg20
F2.3906605674741401
sg21
VL
sg22
F-0.47467940533543201
sg23
VL
sg24
g735
sg26
F3.2071781096183827
sg27
F1.6098442502844961
sg28
V8
sg29
I6
sg30
I68
sg31
I0
sg32
g736
sg34
VS
sa(dp747
g16
VIn play, out(s)
p748
sg18
V6-0
p749
sg20
F2.3067287064207198
sg21
VR
sg22
F0.10415529633091
sg23
VR
sg24
V608648
p750
sg26
F3.1557132526485461
sg27
F1.3471785697694969
sg28
V8
sg29
I1
sg30
I69
sg31
I0
sg32
V455104
p751
sg34
VX
sa(dp752
g16
VBall
p753
sg18
V5-11
p754
sg20
F1.5779946879889
sg21
VR
sg22
F-0.83971728542678203
sg23
VR
sg24
V611093
p755
sg26
F2.8253165510030556
sg27
F1.3676865652679311
sg28
V8
sg29
I1
sg30
I70
sg31
I1
sg32
V572821
p756
sg34
VB
sa(dp757
g16
VBall
p758
sg18
g754
sg20
F1.2721370953817299
sg21
VR
sg22
F1.4035798498210501
sg23
VR
sg24
g755
sg26
F2.9262553892838667
sg27
F1.4322922961996127
sg28
V8
sg29
I2
sg30
I70
sg31
I1
sg32
g756
sg34
VB
sa(dp759
g16
VIn play, run(s)
p760
sg18
g754
sg20
F2.6403619568922498
sg21
VR
sg22
F-0.61034421293701702
sg23
VR
sg24
g755
sg26
F2.7331984572168651
sg27
F1.0453809484107595
sg28
V8
sg29
I3
sg30
I70
sg31
I1
sg32
g756
sg34
VX
sa(dp761
g16
VIn play, no out
p762
sg18
V6-4
p763
sg20
F3.0352649682069801
sg21
VR
sg22
F0.41650630769963598
sg23
VL
sg24
V611093
p764
sg26
F3.2663717942388146
sg27
F1.3773583157188938
sg28
V8
sg29
I1
sg30
I71
sg31
I1
sg32
V596146
p765
sg34
VX
sa(dp766
g16
VBall In Dirt
p767
sg18
V6-5
p768
sg20
F0.216182727729305
sg21
VR
sg22
F-0.104741768092474
sg23
VL
sg24
V611093
p769
sg26
F3.4558533541489993
sg27
F1.5325011214489237
sg28
V8
sg29
I1
sg30
I72
sg31
I1
sg32
V408045
p770
sg34
VB
sa(dp771
g16
VCalled Strike
p772
sg18
g768
sg20
F3.3371107669426801
sg21
VR
sg22
F-0.18030578816627399
sg23
VL
sg24
g769
sg26
F3.4228728542255951
sg27
F1.8554919459168033
sg28
V8
sg29
I2
sg30
I72
sg31
I1
sg32
g770
sg34
VS
sa(dp773
g16
VBall
p774
sg18
g768
sg20
F3.3993770148909701
sg21
VR
sg22
F0.69682204158274996
sg23
VL
sg24
g769
sg26
F3.3482518788753737
sg27
F1.6832357940087803
sg28
V8
sg29
I3
sg30
I72
sg31
I1
sg32
g770
sg34
VB
sa(dp775
g16
VBall
p776
sg18
g768
sg20
F1.5364730366083399
sg21
VR
sg22
F-0.39701144049681503
sg23
VL
sg24
g769
sg26
F3.4343334602527378
sg27
F1.6401697485286419
sg28
V8
sg29
I4
sg30
I72
sg31
I1
sg32
g770
sg34
VB
sa(dp777
g16
VCalled Strike
p778
sg18
g768
sg20
F2.11907605767643
sg21
VR
sg22
F0.401210643134503
sg23
VL
sg24
g769
sg26
F3.401352652933511
sg27
F1.5971029000020565
sg28
V8
sg29
I5
sg30
I72
sg31
I1
sg32
g770
sg34
VS
sa(dp779
g16
VIn play, out(s)
p780
sg18
g768
sg20
F2.2568586114783402
sg21
VR
sg22
F-0.38238075609334499
sg23
VL
sg24
g769
sg26
F3.3267309820679429
sg27
F1.4678975359165065
sg28
V8
sg29
I6
sg30
I72
sg31
I1
sg32
g770
sg34
VX
sa(dp781
g16
VBall
p782
sg18
V6-4
p783
sg20
F3.2355014857958202
sg21
VR
sg22
F0.50970980975438096
sg23
VR
sg24
V611093
p784
sg26
F3.6762753252231519
sg27
F1.7716318224400993
sg28
V8
sg29
I1
sg30
I73
sg31
I1
sg32
V593934
p785
sg34
VB
sa(dp786
g16
VFoul
p787
sg18
g783
sg20
F2.8080189187402298
sg21
VR
sg22
F-1.0764353266915501
sg23
VR
sg24
g784
sg26
F3.3965088342025282
sg27
F1.4369641763209842
sg28
V8
sg29
I2
sg30
I73
sg31
I1
sg32
g785
sg34
VS
sa(dp788
g16
VBall
p789
sg18
g783
sg20
F1.5002600393323799
sg21
VR
sg22
F0.57306203597769001
sg23
VR
sg24
g784
sg26
F3.6553796676310029
sg27
F1.8683798663381168
sg28
V8
sg29
I3
sg30
I73
sg31
I1
sg32
g785
sg34
VB
sa(dp790
g16
VCalled Strike
p791
sg18
g783
sg20
F1.95938574706475
sg21
VR
sg22
F0.52774544280040003
sg23
VR
sg24
g784
sg26
F3.6883565855235005
sg27
F1.66453299216532
sg28
V8
sg29
I4
sg30
I73
sg31
I1
sg32
g785
sg34
VS
sa(dp792
g16
VBall
p793
sg18
g783
sg20
F3.1379378174272001
sg21
VR
sg22
F1.0588635883784301
sg23
VR
sg24
g784
sg26
F3.6553796676310029
sg27
F1.6961246757072104
sg28
V8
sg29
I5
sg30
I73
sg31
I1
sg32
g785
sg34
VB
sa(dp794
g16
VFoul
p795
sg18
g783
sg20
F4.0481366012565996
sg21
VR
sg22
F0.57708913884780699
sg23
VR
sg24
g784
sg26
F3.3965088342025282
sg27
F1.4369641763209842
sg28
V8
sg29
I6
sg30
I73
sg31
I1
sg32
g785
sg34
VS
sa(dp796
g16
VIn play, run(s)
p797
sg18
g783
sg20
F2.4540259640137698
sg21
VR
sg22
F0.176415725454315
sg23
VR
sg24
g784
sg26
F3.3971500196564932
sg27
F1.4377177987929812
sg28
V8
sg29
I7
sg30
I73
sg31
I1
sg32
g785
sg34
VX
sa(dp798
g16
VFoul
p799
sg18
V6-1
p800
sg20
F3.2656988677812202
sg21
VR
sg22
F0.30179536741713697
sg23
VL
sg24
V611093
p801
sg26
F2.9947553033494501
sg27
F1.2868190690375911
sg28
V8
sg29
I1
sg30
I74
sg31
I1
sg32
V592696
p802
sg34
VS
sa(dp803
g16
VFoul
p804
sg18
g800
sg20
F2.7936806929640201
sg21
VR
sg22
F-0.72627089220537
sg23
VL
sg24
g801
sg26
F2.9947553033494501
sg27
F1.2868190690375911
sg28
V8
sg29
I2
sg30
I74
sg31
I1
sg32
g802
sg34
VS
sa(dp805
g16
VBall
p806
sg18
g800
sg20
F1.1936068909523501
sg21
VR
sg22
F-1.0049302384967
sg23
VL
sg24
g801
sg26
F3.2085820615887641
sg27
F1.5021742094757471
sg28
V8
sg29
I3
sg30
I74
sg31
I1
sg32
g802
sg34
VB
sa(dp807
g16
VFoul
p808
sg18
g800
sg20
F2.5353176453389801
sg21
VR
sg22
F-0.28816773674580498
sg23
VL
sg24
g801
sg26
F2.9947553033494501
sg27
F1.2868190690375911
sg28
V8
sg29
I4
sg30
I74
sg31
I1
sg32
g802
sg34
VS
sa(dp809
g16
VFoul
p810
sg18
g800
sg20
F3.2977542541399001
sg21
VR
sg22
F1.0932382275218699
sg23
VL
sg24
g801
sg26
F2.9947553033494501
sg27
F1.2868190690375911
sg28
V8
sg29
I5
sg30
I74
sg31
I1
sg32
g802
sg34
VS
sa(dp811
g16
VFoul
p812
sg18
g800
sg20
F3.0470994723387301
sg21
VR
sg22
F-0.60965231888068105
sg23
VL
sg24
g801
sg26
F2.9947553033494501
sg27
F1.2868190690375911
sg28
V8
sg29
I6
sg30
I74
sg31
I1
sg32
g802
sg34
VS
sa(dp813
g16
VIn play, out(s)
p814
sg18
g800
sg20
F2.7312399009233399
sg21
VR
sg22
F0.79045503959321495
sg23
VL
sg24
g801
sg26
F2.9947553033494501
sg27
F1.2868190690375911
sg28
V8
sg29
I7
sg30
I74
sg31
I1
sg32
g802
sg34
VX
sa(dp815
g16
VCalled Strike
p816
sg18
V6-2
p817
sg20
F1.94660770513299
sg21
VR
sg22
F0.51340441960198202
sg23
VR
sg24
V608648
p818
sg26
F3.6584387267671801
sg27
F1.7593068768824267
sg28
V9
sg29
I1
sg30
I75
sg31
I0
sg32
V592273
p819
sg34
VS
sa(dp820
g16
VBall
p821
sg18
g817
sg20
F1.85554426934323
sg21
VR
sg22
F-1.10285433905398
sg23
VR
sg24
g818
sg26
F3.6914151224714402
sg27
F1.6731768198521522
sg28
V9
sg29
I2
sg30
I75
sg31
I0
sg32
g819
sg34
VB
sa(dp822
g16
VBall
p823
sg18
g817
sg20
F1.03962280456162
sg21
VR
sg22
F0.78656703765742997
sg23
VR
sg24
g818
sg26
F3.7344499176417756
sg27
F1.7377746637504785
sg28
V9
sg29
I3
sg30
I75
sg31
I0
sg32
g819
sg34
VB
sa(dp824
g16
VCalled Strike
p825
sg18
g817
sg20
F2.6880820694945098
sg21
VR
sg22
F0.56264218387665199
sg23
VR
sg24
g818
sg26
F3.5938841078921584
sg27
F1.7377746637504785
sg28
V9
sg29
I4
sg30
I75
sg31
I0
sg32
g819
sg34
VS
sa(dp826
g16
VIn play, out(s)
p827
sg18
g817
sg20
F2.63158473557443
sg21
VR
sg22
F-0.81031958237270196
sg23
VR
sg24
g818
sg26
F3.4776289001415179
sg27
F1.4578376238684285
sg28
V9
sg29
I5
sg30
I75
sg31
I0
sg32
g819
sg34
VX
sa(dp828
g16
VBall
p829
sg18
V6-1
p830
sg20
F4.2227140154244696
sg21
VL
sg22
F-0.72736276895088703
sg23
VR
sg24
V543867
p831
sg26
F3.3482518788738105
sg27
F1.655889523489968
sg28
V9
sg29
I1
sg30
I76
sg31
I0
sg32
V606466
p832
sg34
VB
sa(dp833
g16
VIn play, out(s)
p834
sg18
g830
sg20
F2.3977819576128701
sg21
VL
sg22
F-0.56703523910453901
sg23
VR
sg24
g831
sg26
F3.3267309820663797
sg27
F1.3974781447198694
sg28
V9
sg29
I2
sg30
I76
sg31
I0
sg32
g832
sg34
VX
sa(dp835
g16
VCalled Strike
p836
sg18
V5-10
p837
sg20
F2.2361585847110601
sg21
VL
sg22
F-0.34400543851899201
sg23
VL
sg24
V543867
p838
sg26
F3.4352550085652425
sg27
F1.7032024740429677
sg28
V9
sg29
I1
sg30
I77
sg31
I0
sg32
V453923
p839
sg34
VS
sa(dp840
g16
VIn play, out(s)
p841
sg18
g837
sg20
F2.4496495801201799
sg21
VL
sg22
F-0.101090390656916
sg23
VL
sg24
g838
sg26
F3.0249349252176927
sg27
F1.3371186537972832
sg28
V9
sg29
I2
sg30
I77
sg31
I0
sg32
g839
sg34
VX
sasS'teams'
p842
(lp843
(dp844
S'short_name'
p845
VArizona
p846
sS'wins'
p847
V67
p848
sS'losses'
p849
V55
p850
sS'team_flag'
p851
Vaway
p852
sS'full_name'
p853
VArizona Diamondbacks
p854
sS'team_code'
p855
Vari
p856
sS'id'
p857
V109
p858
sa(dp859
S'short_name'
p860
VMinnesota
p861
sS'wins'
p862
V61
p863
sS'losses'
p864
V59
p865
sS'team_flag'
p866
Vhome
p867
sS'full_name'
p868
VMinnesota Twins
p869
sS'team_code'
p870
Vmin
p871
sS'id'
p872
V142
p873
sasS'date'
p874
VAugust 18, 2017
p875
sS'game_id'
p876
V2017/08/18/arimlb-minmlb-1
p877
s.